

Microchip Technology PIC18 LITE Macro Assembler V2.00 build -1524193055 
                                                                                               Mon Nov 12 14:40:46 2018

Microchip Technology Omniscient Code Generator v2.00 (Free mode) build 20180527130849
     1  0000                     
     2                           ; Version 2.00
     3                           ; Generated 27/05/2018 GMT
     4                           
     5                           ; 
     6                           ; Copyright © 2018, Microchip Technology Inc. and its subsidiaries ("Microchip")
     7                           ; All rights reserved.
     8                           ; 
     9                           ; This software is developed by Microchip Technology Inc. and its subsidiaries ("Microch
                                 ip").
    10                           ; 
    11                           ; Redistribution and use in source and binary forms, with or without modification, are
    12                           ; permitted provided that the following conditions are met:
    13                           ; 
    14                           ;     1. Redistributions of source code must retain the above copyright notice, this lis
                                 t of
    15                           ;        conditions and the following disclaimer.
    16                           ; 
    17                           ;     2. Redistributions in binary form must reproduce the above copyright notice, this 
                                 list
    18                           ;        of conditions and the following disclaimer in the documentation and/or other
    19                           ;        materials provided with the distribution.
    20                           ; 
    21                           ;     3. Microchip's name may not be used to endorse or promote products derived from th
                                 is
    22                           ;        software without specific prior written permission.
    23                           ; 
    24                           ; THIS SOFTWARE IS PROVIDED BY MICROCHIP "AS IS" AND ANY EXPRESS OR IMPLIED WARRANTIES,

    25                           ; INCLUDING, BUT NOT LIMITED TO, THE IMPLIED WARRANTIES OF MERCHANTABILITY AND FITNESS F
                                 OR
    26                           ; PURPOSE ARE DISCLAIMED.  IN NO EVENT SHALL MICROCHIP BE LIABLE FOR ANY DIRECT, INDIREC
                                 T,
    27                           ; INCIDENTAL, SPECIAL, EXEMPLARY, OR CONSEQUENTIAL DAMAGES (INCLUDING BUT NOT LIMITED TO
                                 
    28                           ; PROCUREMENT OF SUBSTITUTE GOODS OR SERVICES; LOSS OF USE, DATA OR PROFITS; OR BUSINESS
                                 
    29                           ; INTERRUPTION) HOWSOEVER CAUSED AND ON ANY THEORY OF LIABILITY, WHETHER IN CONTRACT, ST
                                 RICT
    30                           ; LIABILITY, OR TORT (INCLUDING NEGLIGENCE OR OTHERWISE) ARISING IN ANY WAY OUT OF THE U
                                 SE OF
    31                           ; THIS SOFTWARE, EVEN IF ADVISED OF THE POSSIBILITY OF SUCH DAMAGE.
    32                           ; 
    33                           
    34                           
    35                           ; 
    36                           ; Code-generator required, PIC18F4550 Definitions
    37                           ; 
    38  0000                     fsr0 equ 0FE9h
    39  0000                     fsr0h equ 0FEAh
    40  0000                     fsr0l equ 0FE9h
    41  0000                     fsr1 equ 0FE1h
    42  0000                     fsr1h equ 0FE2h
    43  0000                     fsr1l equ 0FE1h
    44  0000                     fsr2 equ 0FD9h
    45  0000                     fsr2h equ 0FDAh
    46  0000                     fsr2l equ 0FD9h
    47  0000                     indf0 equ 0FEFh
    48  0000                     indf1 equ 0FE7h
    49  0000                     indf2 equ 0FDFh
    50  0000                     intcon equ 0FF2h
    51  0000                     nvmcon equ 00h
    52  0000                     pcl equ 0FF9h
    53  0000                     pclath equ 0FFAh
    54  0000                     pclatu equ 0FFBh
    55  0000                     plusw0 equ 0FEBh
    56  0000                     plusw1 equ 0FE3h
    57  0000                     plusw2 equ 0FDBh
    58  0000                     postdec0 equ 0FEDh
    59  0000                     postdec1 equ 0FE5h
    60  0000                     postdec2 equ 0FDDh
    61  0000                     postinc0 equ 0FEEh
    62  0000                     postinc1 equ 0FE6h
    63  0000                     postinc2 equ 0FDEh
    64  0000                     preinc0 equ 0FECh
    65  0000                     preinc1 equ 0FE4h
    66  0000                     preinc2 equ 0FDCh
    67  0000                     prod equ 0FF3h
    68  0000                     prodh equ 0FF4h
    69  0000                     prodl equ 0FF3h
    70  0000                     status equ 0FD8h
    71  0000                     tablat equ 0FF5h
    72  0000                     tblptr equ 0FF6h
    73  0000                     tblptrh equ 0FF7h
    74  0000                     tblptrl equ 0FF6h
    75  0000                     tblptru equ 0FF8h
    76  0000                     tosl equ 0FFDh
    77  0000                     wreg equ 0FE8h
    78  0000                     
     2                           opt pagewidth 120
     3  0000                     byte0	macro	val
     4                           	(getbyte(val,0))
     5                           endm
     6  0000                     byte1	macro	val
     7                           	(getbyte(val,1))
     8                           endm
     9  0000                     byte2	macro	val
    10                           	(getbyte(val,2))
    11                           endm
    12  0000                     byte3	macro	val
    13                           	(getbyte(val,3))
    14                           endm
    15  0000                     byte4	macro	val
    16                           	(getbyte(val,4))
    17                           endm
    18  0000                     byte5	macro	val
    19                           	(getbyte(val,5))
    20                           endm
    21  0000                     byte6	macro	val
    22                           	(getbyte(val,6))
    23                           endm
    24  0000                     byte7	macro	val
    25                           	(getbyte(val,7))
    26                           endm
    27  0000                     getword	macro	val,pos
    28                           	(((val) >> (8 * pos)) and 0xffff)
    29                           endm
    30  0000                     word0	macro	val
    31                           	(getword(val,0))
    32                           endm
    33  0000                     word1	macro	val
    34                           	(getword(val,2))
    35                           endm
    36  0000                     word2	macro	val
    37                           	(getword(val,4))
    38                           endm
    39  0000                     word3	macro	val
    40                           	(getword(val,6))
    41                           endm
    42  0000                     gettword	macro	val,pos
    43                           	(((val) >> (8 * pos)) and 0xffffff)
    44                           endm
    45  0000                     tword0	macro	val
    46                           	(gettword(val,0))
    47                           endm
    48  0000                     tword1	macro	val
    49                           	(gettword(val,3))
    50                           endm
    51  0000                     tword2	macro	val
    52                           	(gettword(val,6))
    53                           endm
    54  0000                     getdword	macro	val,pos
    55                           	(((val) >> (8 * pos)) and 0xffffffff)
    56                           endm
    57  0000                     dword0	macro	val
    58                           	(getdword(val,0))
    59                           endm
    60  0000                     dword1	macro	val
    61                           	(getdword(val,4))
    62                           endm
    63  0000                     clrc   macro
    64                           	bcf	status,0
    65                           endm
    66  0000                     setc   macro
    67                           	bsf	status,0
    68                           endm
    69  0000                     clrz   macro
    70                           	bcf	status,2
    71                           endm
    72  0000                     setz   macro
    73                           	bsf	status,2
    74                           endm
    75  0000                     skipnz macro
    76                           	btfsc	status,2
    77                           endm
    78  0000                     skipz  macro
    79                           	btfss	status,2
    80                           endm
    81  0000                     skipnc macro
    82                           	btfsc	status,0
    83                           endm
    84  0000                     skipc  macro
    85                           	btfss	status,0
    86                           endm
    87  0000                     pushw macro
    88                           	movwf postinc1
    89                           endm
    90  0000                     pushf macro arg1
    91                           	movff arg1, postinc1
    92                           endm
    93  0000                     popw macro
    94                           	movf postdec1,f
    95                           	movf indf1,w
    96                           endm
    97  0000                     popf macro arg1
    98                           	movf postdec1,f
    99                           	movff indf1,arg1
   100                           endm
   101  0000                     popfc macro arg1
   102                           	movff plusw1,arg1
   103                           	decfsz fsr1,f
   104                           endm
   105  0000                     	global	__ramtop
   106                           	global	__accesstop
   107                           # 54 "C:\Program Files (x86)\Microchip\xc8\v2.00\pic\include\pic18f4550.h"
   108                           SPPDATA equ 0F62h ;# 
   109  0000                     # 74 "C:\Program Files (x86)\Microchip\xc8\v2.00\pic\include\pic18f4550.h"
   110                           SPPCFG equ 0F63h ;# 
   111  0000                     # 151 "C:\Program Files (x86)\Microchip\xc8\v2.00\pic\include\pic18f4550.h"
   112                           SPPEPS equ 0F64h ;# 
   113  0000                     # 225 "C:\Program Files (x86)\Microchip\xc8\v2.00\pic\include\pic18f4550.h"
   114                           SPPCON equ 0F65h ;# 
   115  0000                     # 251 "C:\Program Files (x86)\Microchip\xc8\v2.00\pic\include\pic18f4550.h"
   116                           UFRM equ 0F66h ;# 
   117  0000                     # 258 "C:\Program Files (x86)\Microchip\xc8\v2.00\pic\include\pic18f4550.h"
   118                           UFRML equ 0F66h ;# 
   119  0000                     # 336 "C:\Program Files (x86)\Microchip\xc8\v2.00\pic\include\pic18f4550.h"
   120                           UFRMH equ 0F67h ;# 
   121  0000                     # 376 "C:\Program Files (x86)\Microchip\xc8\v2.00\pic\include\pic18f4550.h"
   122                           UIR equ 0F68h ;# 
   123  0000                     # 432 "C:\Program Files (x86)\Microchip\xc8\v2.00\pic\include\pic18f4550.h"
   124                           UIE equ 0F69h ;# 
   125  0000                     # 488 "C:\Program Files (x86)\Microchip\xc8\v2.00\pic\include\pic18f4550.h"
   126                           UEIR equ 0F6Ah ;# 
   127  0000                     # 539 "C:\Program Files (x86)\Microchip\xc8\v2.00\pic\include\pic18f4550.h"
   128                           UEIE equ 0F6Bh ;# 
   129  0000                     # 590 "C:\Program Files (x86)\Microchip\xc8\v2.00\pic\include\pic18f4550.h"
   130                           USTAT equ 0F6Ch ;# 
   131  0000                     # 650 "C:\Program Files (x86)\Microchip\xc8\v2.00\pic\include\pic18f4550.h"
   132                           UCON equ 0F6Dh ;# 
   133  0000                     # 701 "C:\Program Files (x86)\Microchip\xc8\v2.00\pic\include\pic18f4550.h"
   134                           UADDR equ 0F6Eh ;# 
   135  0000                     # 765 "C:\Program Files (x86)\Microchip\xc8\v2.00\pic\include\pic18f4550.h"
   136                           UCFG equ 0F6Fh ;# 
   137  0000                     # 844 "C:\Program Files (x86)\Microchip\xc8\v2.00\pic\include\pic18f4550.h"
   138                           UEP0 equ 0F70h ;# 
   139  0000                     # 952 "C:\Program Files (x86)\Microchip\xc8\v2.00\pic\include\pic18f4550.h"
   140                           UEP1 equ 0F71h ;# 
   141  0000                     # 1060 "C:\Program Files (x86)\Microchip\xc8\v2.00\pic\include\pic18f4550.h"
   142                           UEP2 equ 0F72h ;# 
   143  0000                     # 1168 "C:\Program Files (x86)\Microchip\xc8\v2.00\pic\include\pic18f4550.h"
   144                           UEP3 equ 0F73h ;# 
   145  0000                     # 1276 "C:\Program Files (x86)\Microchip\xc8\v2.00\pic\include\pic18f4550.h"
   146                           UEP4 equ 0F74h ;# 
   147  0000                     # 1384 "C:\Program Files (x86)\Microchip\xc8\v2.00\pic\include\pic18f4550.h"
   148                           UEP5 equ 0F75h ;# 
   149  0000                     # 1492 "C:\Program Files (x86)\Microchip\xc8\v2.00\pic\include\pic18f4550.h"
   150                           UEP6 equ 0F76h ;# 
   151  0000                     # 1600 "C:\Program Files (x86)\Microchip\xc8\v2.00\pic\include\pic18f4550.h"
   152                           UEP7 equ 0F77h ;# 
   153  0000                     # 1708 "C:\Program Files (x86)\Microchip\xc8\v2.00\pic\include\pic18f4550.h"
   154                           UEP8 equ 0F78h ;# 
   155  0000                     # 1784 "C:\Program Files (x86)\Microchip\xc8\v2.00\pic\include\pic18f4550.h"
   156                           UEP9 equ 0F79h ;# 
   157  0000                     # 1860 "C:\Program Files (x86)\Microchip\xc8\v2.00\pic\include\pic18f4550.h"
   158                           UEP10 equ 0F7Ah ;# 
   159  0000                     # 1936 "C:\Program Files (x86)\Microchip\xc8\v2.00\pic\include\pic18f4550.h"
   160                           UEP11 equ 0F7Bh ;# 
   161  0000                     # 2012 "C:\Program Files (x86)\Microchip\xc8\v2.00\pic\include\pic18f4550.h"
   162                           UEP12 equ 0F7Ch ;# 
   163  0000                     # 2088 "C:\Program Files (x86)\Microchip\xc8\v2.00\pic\include\pic18f4550.h"
   164                           UEP13 equ 0F7Dh ;# 
   165  0000                     # 2164 "C:\Program Files (x86)\Microchip\xc8\v2.00\pic\include\pic18f4550.h"
   166                           UEP14 equ 0F7Eh ;# 
   167  0000                     # 2240 "C:\Program Files (x86)\Microchip\xc8\v2.00\pic\include\pic18f4550.h"
   168                           UEP15 equ 0F7Fh ;# 
   169  0000                     # 2316 "C:\Program Files (x86)\Microchip\xc8\v2.00\pic\include\pic18f4550.h"
   170                           PORTA equ 0F80h ;# 
   171  0000                     # 2455 "C:\Program Files (x86)\Microchip\xc8\v2.00\pic\include\pic18f4550.h"
   172                           PORTB equ 0F81h ;# 
   173  0000                     # 2565 "C:\Program Files (x86)\Microchip\xc8\v2.00\pic\include\pic18f4550.h"
   174                           PORTC equ 0F82h ;# 
   175  0000                     # 2707 "C:\Program Files (x86)\Microchip\xc8\v2.00\pic\include\pic18f4550.h"
   176                           PORTD equ 0F83h ;# 
   177  0000                     # 2828 "C:\Program Files (x86)\Microchip\xc8\v2.00\pic\include\pic18f4550.h"
   178                           PORTE equ 0F84h ;# 
   179  0000                     # 2975 "C:\Program Files (x86)\Microchip\xc8\v2.00\pic\include\pic18f4550.h"
   180                           LATA equ 0F89h ;# 
   181  0000                     # 3075 "C:\Program Files (x86)\Microchip\xc8\v2.00\pic\include\pic18f4550.h"
   182                           LATB equ 0F8Ah ;# 
   183  0000                     # 3187 "C:\Program Files (x86)\Microchip\xc8\v2.00\pic\include\pic18f4550.h"
   184                           LATC equ 0F8Bh ;# 
   185  0000                     # 3265 "C:\Program Files (x86)\Microchip\xc8\v2.00\pic\include\pic18f4550.h"
   186                           LATD equ 0F8Ch ;# 
   187  0000                     # 3377 "C:\Program Files (x86)\Microchip\xc8\v2.00\pic\include\pic18f4550.h"
   188                           LATE equ 0F8Dh ;# 
   189  0000                     # 3429 "C:\Program Files (x86)\Microchip\xc8\v2.00\pic\include\pic18f4550.h"
   190                           TRISA equ 0F92h ;# 
   191  0000                     # 3434 "C:\Program Files (x86)\Microchip\xc8\v2.00\pic\include\pic18f4550.h"
   192                           DDRA equ 0F92h ;# 
   193  0000                     # 3627 "C:\Program Files (x86)\Microchip\xc8\v2.00\pic\include\pic18f4550.h"
   194                           TRISB equ 0F93h ;# 
   195  0000                     # 3632 "C:\Program Files (x86)\Microchip\xc8\v2.00\pic\include\pic18f4550.h"
   196                           DDRB equ 0F93h ;# 
   197  0000                     # 3849 "C:\Program Files (x86)\Microchip\xc8\v2.00\pic\include\pic18f4550.h"
   198                           TRISC equ 0F94h ;# 
   199  0000                     # 3854 "C:\Program Files (x86)\Microchip\xc8\v2.00\pic\include\pic18f4550.h"
   200                           DDRC equ 0F94h ;# 
   201  0000                     # 4003 "C:\Program Files (x86)\Microchip\xc8\v2.00\pic\include\pic18f4550.h"
   202                           TRISD equ 0F95h ;# 
   203  0000                     # 4008 "C:\Program Files (x86)\Microchip\xc8\v2.00\pic\include\pic18f4550.h"
   204                           DDRD equ 0F95h ;# 
   205  0000                     # 4225 "C:\Program Files (x86)\Microchip\xc8\v2.00\pic\include\pic18f4550.h"
   206                           TRISE equ 0F96h ;# 
   207  0000                     # 4230 "C:\Program Files (x86)\Microchip\xc8\v2.00\pic\include\pic18f4550.h"
   208                           DDRE equ 0F96h ;# 
   209  0000                     # 4327 "C:\Program Files (x86)\Microchip\xc8\v2.00\pic\include\pic18f4550.h"
   210                           OSCTUNE equ 0F9Bh ;# 
   211  0000                     # 4386 "C:\Program Files (x86)\Microchip\xc8\v2.00\pic\include\pic18f4550.h"
   212                           PIE1 equ 0F9Dh ;# 
   213  0000                     # 4470 "C:\Program Files (x86)\Microchip\xc8\v2.00\pic\include\pic18f4550.h"
   214                           PIR1 equ 0F9Eh ;# 
   215  0000                     # 4554 "C:\Program Files (x86)\Microchip\xc8\v2.00\pic\include\pic18f4550.h"
   216                           IPR1 equ 0F9Fh ;# 
   217  0000                     # 4638 "C:\Program Files (x86)\Microchip\xc8\v2.00\pic\include\pic18f4550.h"
   218                           PIE2 equ 0FA0h ;# 
   219  0000                     # 4709 "C:\Program Files (x86)\Microchip\xc8\v2.00\pic\include\pic18f4550.h"
   220                           PIR2 equ 0FA1h ;# 
   221  0000                     # 4780 "C:\Program Files (x86)\Microchip\xc8\v2.00\pic\include\pic18f4550.h"
   222                           IPR2 equ 0FA2h ;# 
   223  0000                     # 4851 "C:\Program Files (x86)\Microchip\xc8\v2.00\pic\include\pic18f4550.h"
   224                           EECON1 equ 0FA6h ;# 
   225  0000                     # 4917 "C:\Program Files (x86)\Microchip\xc8\v2.00\pic\include\pic18f4550.h"
   226                           EECON2 equ 0FA7h ;# 
   227  0000                     # 4924 "C:\Program Files (x86)\Microchip\xc8\v2.00\pic\include\pic18f4550.h"
   228                           EEDATA equ 0FA8h ;# 
   229  0000                     # 4931 "C:\Program Files (x86)\Microchip\xc8\v2.00\pic\include\pic18f4550.h"
   230                           EEADR equ 0FA9h ;# 
   231  0000                     # 4938 "C:\Program Files (x86)\Microchip\xc8\v2.00\pic\include\pic18f4550.h"
   232                           RCSTA equ 0FABh ;# 
   233  0000                     # 4943 "C:\Program Files (x86)\Microchip\xc8\v2.00\pic\include\pic18f4550.h"
   234                           RCSTA1 equ 0FABh ;# 
   235  0000                     # 5148 "C:\Program Files (x86)\Microchip\xc8\v2.00\pic\include\pic18f4550.h"
   236                           TXSTA equ 0FACh ;# 
   237  0000                     # 5153 "C:\Program Files (x86)\Microchip\xc8\v2.00\pic\include\pic18f4550.h"
   238                           TXSTA1 equ 0FACh ;# 
   239  0000                     # 5404 "C:\Program Files (x86)\Microchip\xc8\v2.00\pic\include\pic18f4550.h"
   240                           TXREG equ 0FADh ;# 
   241  0000                     # 5409 "C:\Program Files (x86)\Microchip\xc8\v2.00\pic\include\pic18f4550.h"
   242                           TXREG1 equ 0FADh ;# 
   243  0000                     # 5416 "C:\Program Files (x86)\Microchip\xc8\v2.00\pic\include\pic18f4550.h"
   244                           RCREG equ 0FAEh ;# 
   245  0000                     # 5421 "C:\Program Files (x86)\Microchip\xc8\v2.00\pic\include\pic18f4550.h"
   246                           RCREG1 equ 0FAEh ;# 
   247  0000                     # 5428 "C:\Program Files (x86)\Microchip\xc8\v2.00\pic\include\pic18f4550.h"
   248                           SPBRG equ 0FAFh ;# 
   249  0000                     # 5433 "C:\Program Files (x86)\Microchip\xc8\v2.00\pic\include\pic18f4550.h"
   250                           SPBRG1 equ 0FAFh ;# 
   251  0000                     # 5440 "C:\Program Files (x86)\Microchip\xc8\v2.00\pic\include\pic18f4550.h"
   252                           SPBRGH equ 0FB0h ;# 
   253  0000                     # 5447 "C:\Program Files (x86)\Microchip\xc8\v2.00\pic\include\pic18f4550.h"
   254                           T3CON equ 0FB1h ;# 
   255  0000                     # 5568 "C:\Program Files (x86)\Microchip\xc8\v2.00\pic\include\pic18f4550.h"
   256                           TMR3 equ 0FB2h ;# 
   257  0000                     # 5575 "C:\Program Files (x86)\Microchip\xc8\v2.00\pic\include\pic18f4550.h"
   258                           TMR3L equ 0FB2h ;# 
   259  0000                     # 5582 "C:\Program Files (x86)\Microchip\xc8\v2.00\pic\include\pic18f4550.h"
   260                           TMR3H equ 0FB3h ;# 
   261  0000                     # 5589 "C:\Program Files (x86)\Microchip\xc8\v2.00\pic\include\pic18f4550.h"
   262                           CMCON equ 0FB4h ;# 
   263  0000                     # 5679 "C:\Program Files (x86)\Microchip\xc8\v2.00\pic\include\pic18f4550.h"
   264                           CVRCON equ 0FB5h ;# 
   265  0000                     # 5764 "C:\Program Files (x86)\Microchip\xc8\v2.00\pic\include\pic18f4550.h"
   266                           ECCP1AS equ 0FB6h ;# 
   267  0000                     # 5769 "C:\Program Files (x86)\Microchip\xc8\v2.00\pic\include\pic18f4550.h"
   268                           CCP1AS equ 0FB6h ;# 
   269  0000                     # 5926 "C:\Program Files (x86)\Microchip\xc8\v2.00\pic\include\pic18f4550.h"
   270                           ECCP1DEL equ 0FB7h ;# 
   271  0000                     # 5931 "C:\Program Files (x86)\Microchip\xc8\v2.00\pic\include\pic18f4550.h"
   272                           CCP1DEL equ 0FB7h ;# 
   273  0000                     # 6064 "C:\Program Files (x86)\Microchip\xc8\v2.00\pic\include\pic18f4550.h"
   274                           BAUDCON equ 0FB8h ;# 
   275  0000                     # 6069 "C:\Program Files (x86)\Microchip\xc8\v2.00\pic\include\pic18f4550.h"
   276                           BAUDCTL equ 0FB8h ;# 
   277  0000                     # 6244 "C:\Program Files (x86)\Microchip\xc8\v2.00\pic\include\pic18f4550.h"
   278                           CCP2CON equ 0FBAh ;# 
   279  0000                     # 6308 "C:\Program Files (x86)\Microchip\xc8\v2.00\pic\include\pic18f4550.h"
   280                           CCPR2 equ 0FBBh ;# 
   281  0000                     # 6315 "C:\Program Files (x86)\Microchip\xc8\v2.00\pic\include\pic18f4550.h"
   282                           CCPR2L equ 0FBBh ;# 
   283  0000                     # 6322 "C:\Program Files (x86)\Microchip\xc8\v2.00\pic\include\pic18f4550.h"
   284                           CCPR2H equ 0FBCh ;# 
   285  0000                     # 6329 "C:\Program Files (x86)\Microchip\xc8\v2.00\pic\include\pic18f4550.h"
   286                           CCP1CON equ 0FBDh ;# 
   287  0000                     # 6334 "C:\Program Files (x86)\Microchip\xc8\v2.00\pic\include\pic18f4550.h"
   288                           ECCP1CON equ 0FBDh ;# 
   289  0000                     # 6491 "C:\Program Files (x86)\Microchip\xc8\v2.00\pic\include\pic18f4550.h"
   290                           CCPR1 equ 0FBEh ;# 
   291  0000                     # 6498 "C:\Program Files (x86)\Microchip\xc8\v2.00\pic\include\pic18f4550.h"
   292                           CCPR1L equ 0FBEh ;# 
   293  0000                     # 6505 "C:\Program Files (x86)\Microchip\xc8\v2.00\pic\include\pic18f4550.h"
   294                           CCPR1H equ 0FBFh ;# 
   295  0000                     # 6512 "C:\Program Files (x86)\Microchip\xc8\v2.00\pic\include\pic18f4550.h"
   296                           ADCON2 equ 0FC0h ;# 
   297  0000                     # 6583 "C:\Program Files (x86)\Microchip\xc8\v2.00\pic\include\pic18f4550.h"
   298                           ADCON1 equ 0FC1h ;# 
   299  0000                     # 6668 "C:\Program Files (x86)\Microchip\xc8\v2.00\pic\include\pic18f4550.h"
   300                           ADCON0 equ 0FC2h ;# 
   301  0000                     # 6787 "C:\Program Files (x86)\Microchip\xc8\v2.00\pic\include\pic18f4550.h"
   302                           ADRES equ 0FC3h ;# 
   303  0000                     # 6794 "C:\Program Files (x86)\Microchip\xc8\v2.00\pic\include\pic18f4550.h"
   304                           ADRESL equ 0FC3h ;# 
   305  0000                     # 6801 "C:\Program Files (x86)\Microchip\xc8\v2.00\pic\include\pic18f4550.h"
   306                           ADRESH equ 0FC4h ;# 
   307  0000                     # 6808 "C:\Program Files (x86)\Microchip\xc8\v2.00\pic\include\pic18f4550.h"
   308                           SSPCON2 equ 0FC5h ;# 
   309  0000                     # 6870 "C:\Program Files (x86)\Microchip\xc8\v2.00\pic\include\pic18f4550.h"
   310                           SSPCON1 equ 0FC6h ;# 
   311  0000                     # 6940 "C:\Program Files (x86)\Microchip\xc8\v2.00\pic\include\pic18f4550.h"
   312                           SSPSTAT equ 0FC7h ;# 
   313  0000                     # 7188 "C:\Program Files (x86)\Microchip\xc8\v2.00\pic\include\pic18f4550.h"
   314                           SSPADD equ 0FC8h ;# 
   315  0000                     # 7195 "C:\Program Files (x86)\Microchip\xc8\v2.00\pic\include\pic18f4550.h"
   316                           SSPBUF equ 0FC9h ;# 
   317  0000                     # 7202 "C:\Program Files (x86)\Microchip\xc8\v2.00\pic\include\pic18f4550.h"
   318                           T2CON equ 0FCAh ;# 
   319  0000                     # 7300 "C:\Program Files (x86)\Microchip\xc8\v2.00\pic\include\pic18f4550.h"
   320                           PR2 equ 0FCBh ;# 
   321  0000                     # 7305 "C:\Program Files (x86)\Microchip\xc8\v2.00\pic\include\pic18f4550.h"
   322                           MEMCON equ 0FCBh ;# 
   323  0000                     # 7410 "C:\Program Files (x86)\Microchip\xc8\v2.00\pic\include\pic18f4550.h"
   324                           TMR2 equ 0FCCh ;# 
   325  0000                     # 7417 "C:\Program Files (x86)\Microchip\xc8\v2.00\pic\include\pic18f4550.h"
   326                           T1CON equ 0FCDh ;# 
   327  0000                     # 7520 "C:\Program Files (x86)\Microchip\xc8\v2.00\pic\include\pic18f4550.h"
   328                           TMR1 equ 0FCEh ;# 
   329  0000                     # 7527 "C:\Program Files (x86)\Microchip\xc8\v2.00\pic\include\pic18f4550.h"
   330                           TMR1L equ 0FCEh ;# 
   331  0000                     # 7534 "C:\Program Files (x86)\Microchip\xc8\v2.00\pic\include\pic18f4550.h"
   332                           TMR1H equ 0FCFh ;# 
   333  0000                     # 7541 "C:\Program Files (x86)\Microchip\xc8\v2.00\pic\include\pic18f4550.h"
   334                           RCON equ 0FD0h ;# 
   335  0000                     # 7690 "C:\Program Files (x86)\Microchip\xc8\v2.00\pic\include\pic18f4550.h"
   336                           WDTCON equ 0FD1h ;# 
   337  0000                     # 7718 "C:\Program Files (x86)\Microchip\xc8\v2.00\pic\include\pic18f4550.h"
   338                           HLVDCON equ 0FD2h ;# 
   339  0000                     # 7723 "C:\Program Files (x86)\Microchip\xc8\v2.00\pic\include\pic18f4550.h"
   340                           LVDCON equ 0FD2h ;# 
   341  0000                     # 7988 "C:\Program Files (x86)\Microchip\xc8\v2.00\pic\include\pic18f4550.h"
   342                           OSCCON equ 0FD3h ;# 
   343  0000                     # 8071 "C:\Program Files (x86)\Microchip\xc8\v2.00\pic\include\pic18f4550.h"
   344                           T0CON equ 0FD5h ;# 
   345  0000                     # 8141 "C:\Program Files (x86)\Microchip\xc8\v2.00\pic\include\pic18f4550.h"
   346                           TMR0 equ 0FD6h ;# 
   347  0000                     # 8148 "C:\Program Files (x86)\Microchip\xc8\v2.00\pic\include\pic18f4550.h"
   348                           TMR0L equ 0FD6h ;# 
   349  0000                     # 8155 "C:\Program Files (x86)\Microchip\xc8\v2.00\pic\include\pic18f4550.h"
   350                           TMR0H equ 0FD7h ;# 
   351  0000                     # 8162 "C:\Program Files (x86)\Microchip\xc8\v2.00\pic\include\pic18f4550.h"
   352                           STATUS equ 0FD8h ;# 
   353  0000                     # 8233 "C:\Program Files (x86)\Microchip\xc8\v2.00\pic\include\pic18f4550.h"
   354                           FSR2 equ 0FD9h ;# 
   355  0000                     # 8240 "C:\Program Files (x86)\Microchip\xc8\v2.00\pic\include\pic18f4550.h"
   356                           FSR2L equ 0FD9h ;# 
   357  0000                     # 8247 "C:\Program Files (x86)\Microchip\xc8\v2.00\pic\include\pic18f4550.h"
   358                           FSR2H equ 0FDAh ;# 
   359  0000                     # 8254 "C:\Program Files (x86)\Microchip\xc8\v2.00\pic\include\pic18f4550.h"
   360                           PLUSW2 equ 0FDBh ;# 
   361  0000                     # 8261 "C:\Program Files (x86)\Microchip\xc8\v2.00\pic\include\pic18f4550.h"
   362                           PREINC2 equ 0FDCh ;# 
   363  0000                     # 8268 "C:\Program Files (x86)\Microchip\xc8\v2.00\pic\include\pic18f4550.h"
   364                           POSTDEC2 equ 0FDDh ;# 
   365  0000                     # 8275 "C:\Program Files (x86)\Microchip\xc8\v2.00\pic\include\pic18f4550.h"
   366                           POSTINC2 equ 0FDEh ;# 
   367  0000                     # 8282 "C:\Program Files (x86)\Microchip\xc8\v2.00\pic\include\pic18f4550.h"
   368                           INDF2 equ 0FDFh ;# 
   369  0000                     # 8289 "C:\Program Files (x86)\Microchip\xc8\v2.00\pic\include\pic18f4550.h"
   370                           BSR equ 0FE0h ;# 
   371  0000                     # 8296 "C:\Program Files (x86)\Microchip\xc8\v2.00\pic\include\pic18f4550.h"
   372                           FSR1 equ 0FE1h ;# 
   373  0000                     # 8303 "C:\Program Files (x86)\Microchip\xc8\v2.00\pic\include\pic18f4550.h"
   374                           FSR1L equ 0FE1h ;# 
   375  0000                     # 8310 "C:\Program Files (x86)\Microchip\xc8\v2.00\pic\include\pic18f4550.h"
   376                           FSR1H equ 0FE2h ;# 
   377  0000                     # 8317 "C:\Program Files (x86)\Microchip\xc8\v2.00\pic\include\pic18f4550.h"
   378                           PLUSW1 equ 0FE3h ;# 
   379  0000                     # 8324 "C:\Program Files (x86)\Microchip\xc8\v2.00\pic\include\pic18f4550.h"
   380                           PREINC1 equ 0FE4h ;# 
   381  0000                     # 8331 "C:\Program Files (x86)\Microchip\xc8\v2.00\pic\include\pic18f4550.h"
   382                           POSTDEC1 equ 0FE5h ;# 
   383  0000                     # 8338 "C:\Program Files (x86)\Microchip\xc8\v2.00\pic\include\pic18f4550.h"
   384                           POSTINC1 equ 0FE6h ;# 
   385  0000                     # 8345 "C:\Program Files (x86)\Microchip\xc8\v2.00\pic\include\pic18f4550.h"
   386                           INDF1 equ 0FE7h ;# 
   387  0000                     # 8352 "C:\Program Files (x86)\Microchip\xc8\v2.00\pic\include\pic18f4550.h"
   388                           WREG equ 0FE8h ;# 
   389  0000                     # 8359 "C:\Program Files (x86)\Microchip\xc8\v2.00\pic\include\pic18f4550.h"
   390                           FSR0 equ 0FE9h ;# 
   391  0000                     # 8366 "C:\Program Files (x86)\Microchip\xc8\v2.00\pic\include\pic18f4550.h"
   392                           FSR0L equ 0FE9h ;# 
   393  0000                     # 8373 "C:\Program Files (x86)\Microchip\xc8\v2.00\pic\include\pic18f4550.h"
   394                           FSR0H equ 0FEAh ;# 
   395  0000                     # 8380 "C:\Program Files (x86)\Microchip\xc8\v2.00\pic\include\pic18f4550.h"
   396                           PLUSW0 equ 0FEBh ;# 
   397  0000                     # 8387 "C:\Program Files (x86)\Microchip\xc8\v2.00\pic\include\pic18f4550.h"
   398                           PREINC0 equ 0FECh ;# 
   399  0000                     # 8394 "C:\Program Files (x86)\Microchip\xc8\v2.00\pic\include\pic18f4550.h"
   400                           POSTDEC0 equ 0FEDh ;# 
   401  0000                     # 8401 "C:\Program Files (x86)\Microchip\xc8\v2.00\pic\include\pic18f4550.h"
   402                           POSTINC0 equ 0FEEh ;# 
   403  0000                     # 8408 "C:\Program Files (x86)\Microchip\xc8\v2.00\pic\include\pic18f4550.h"
   404                           INDF0 equ 0FEFh ;# 
   405  0000                     # 8415 "C:\Program Files (x86)\Microchip\xc8\v2.00\pic\include\pic18f4550.h"
   406                           INTCON3 equ 0FF0h ;# 
   407  0000                     # 8507 "C:\Program Files (x86)\Microchip\xc8\v2.00\pic\include\pic18f4550.h"
   408                           INTCON2 equ 0FF1h ;# 
   409  0000                     # 8584 "C:\Program Files (x86)\Microchip\xc8\v2.00\pic\include\pic18f4550.h"
   410                           INTCON equ 0FF2h ;# 
   411  0000                     # 8701 "C:\Program Files (x86)\Microchip\xc8\v2.00\pic\include\pic18f4550.h"
   412                           PROD equ 0FF3h ;# 
   413  0000                     # 8708 "C:\Program Files (x86)\Microchip\xc8\v2.00\pic\include\pic18f4550.h"
   414                           PRODL equ 0FF3h ;# 
   415  0000                     # 8715 "C:\Program Files (x86)\Microchip\xc8\v2.00\pic\include\pic18f4550.h"
   416                           PRODH equ 0FF4h ;# 
   417  0000                     # 8722 "C:\Program Files (x86)\Microchip\xc8\v2.00\pic\include\pic18f4550.h"
   418                           TABLAT equ 0FF5h ;# 
   419  0000                     # 8731 "C:\Program Files (x86)\Microchip\xc8\v2.00\pic\include\pic18f4550.h"
   420                           TBLPTR equ 0FF6h ;# 
   421  0000                     # 8738 "C:\Program Files (x86)\Microchip\xc8\v2.00\pic\include\pic18f4550.h"
   422                           TBLPTRL equ 0FF6h ;# 
   423  0000                     # 8745 "C:\Program Files (x86)\Microchip\xc8\v2.00\pic\include\pic18f4550.h"
   424                           TBLPTRH equ 0FF7h ;# 
   425  0000                     # 8752 "C:\Program Files (x86)\Microchip\xc8\v2.00\pic\include\pic18f4550.h"
   426                           TBLPTRU equ 0FF8h ;# 
   427  0000                     # 8761 "C:\Program Files (x86)\Microchip\xc8\v2.00\pic\include\pic18f4550.h"
   428                           PCLAT equ 0FF9h ;# 
   429  0000                     # 8768 "C:\Program Files (x86)\Microchip\xc8\v2.00\pic\include\pic18f4550.h"
   430                           PC equ 0FF9h ;# 
   431  0000                     # 8775 "C:\Program Files (x86)\Microchip\xc8\v2.00\pic\include\pic18f4550.h"
   432                           PCL equ 0FF9h ;# 
   433  0000                     # 8782 "C:\Program Files (x86)\Microchip\xc8\v2.00\pic\include\pic18f4550.h"
   434                           PCLATH equ 0FFAh ;# 
   435  0000                     # 8789 "C:\Program Files (x86)\Microchip\xc8\v2.00\pic\include\pic18f4550.h"
   436                           PCLATU equ 0FFBh ;# 
   437  0000                     # 8796 "C:\Program Files (x86)\Microchip\xc8\v2.00\pic\include\pic18f4550.h"
   438                           STKPTR equ 0FFCh ;# 
   439  0000                     # 8872 "C:\Program Files (x86)\Microchip\xc8\v2.00\pic\include\pic18f4550.h"
   440                           TOS equ 0FFDh ;# 
   441  0000                     # 8879 "C:\Program Files (x86)\Microchip\xc8\v2.00\pic\include\pic18f4550.h"
   442                           TOSL equ 0FFDh ;# 
   443  0000                     # 8886 "C:\Program Files (x86)\Microchip\xc8\v2.00\pic\include\pic18f4550.h"
   444                           TOSH equ 0FFEh ;# 
   445  0000                     # 8893 "C:\Program Files (x86)\Microchip\xc8\v2.00\pic\include\pic18f4550.h"
   446                           TOSU equ 0FFFh ;# 
   447  0000                     # 54 "C:\Program Files (x86)\Microchip\xc8\v2.00\pic\include\pic18f4550.h"
   448                           SPPDATA equ 0F62h ;# 
   449  0000                     # 74 "C:\Program Files (x86)\Microchip\xc8\v2.00\pic\include\pic18f4550.h"
   450                           SPPCFG equ 0F63h ;# 
   451  0000                     # 151 "C:\Program Files (x86)\Microchip\xc8\v2.00\pic\include\pic18f4550.h"
   452                           SPPEPS equ 0F64h ;# 
   453  0000                     # 225 "C:\Program Files (x86)\Microchip\xc8\v2.00\pic\include\pic18f4550.h"
   454                           SPPCON equ 0F65h ;# 
   455  0000                     # 251 "C:\Program Files (x86)\Microchip\xc8\v2.00\pic\include\pic18f4550.h"
   456                           UFRM equ 0F66h ;# 
   457  0000                     # 258 "C:\Program Files (x86)\Microchip\xc8\v2.00\pic\include\pic18f4550.h"
   458                           UFRML equ 0F66h ;# 
   459  0000                     # 336 "C:\Program Files (x86)\Microchip\xc8\v2.00\pic\include\pic18f4550.h"
   460                           UFRMH equ 0F67h ;# 
   461  0000                     # 376 "C:\Program Files (x86)\Microchip\xc8\v2.00\pic\include\pic18f4550.h"
   462                           UIR equ 0F68h ;# 
   463  0000                     # 432 "C:\Program Files (x86)\Microchip\xc8\v2.00\pic\include\pic18f4550.h"
   464                           UIE equ 0F69h ;# 
   465  0000                     # 488 "C:\Program Files (x86)\Microchip\xc8\v2.00\pic\include\pic18f4550.h"
   466                           UEIR equ 0F6Ah ;# 
   467  0000                     # 539 "C:\Program Files (x86)\Microchip\xc8\v2.00\pic\include\pic18f4550.h"
   468                           UEIE equ 0F6Bh ;# 
   469  0000                     # 590 "C:\Program Files (x86)\Microchip\xc8\v2.00\pic\include\pic18f4550.h"
   470                           USTAT equ 0F6Ch ;# 
   471  0000                     # 650 "C:\Program Files (x86)\Microchip\xc8\v2.00\pic\include\pic18f4550.h"
   472                           UCON equ 0F6Dh ;# 
   473  0000                     # 701 "C:\Program Files (x86)\Microchip\xc8\v2.00\pic\include\pic18f4550.h"
   474                           UADDR equ 0F6Eh ;# 
   475  0000                     # 765 "C:\Program Files (x86)\Microchip\xc8\v2.00\pic\include\pic18f4550.h"
   476                           UCFG equ 0F6Fh ;# 
   477  0000                     # 844 "C:\Program Files (x86)\Microchip\xc8\v2.00\pic\include\pic18f4550.h"
   478                           UEP0 equ 0F70h ;# 
   479  0000                     # 952 "C:\Program Files (x86)\Microchip\xc8\v2.00\pic\include\pic18f4550.h"
   480                           UEP1 equ 0F71h ;# 
   481  0000                     # 1060 "C:\Program Files (x86)\Microchip\xc8\v2.00\pic\include\pic18f4550.h"
   482                           UEP2 equ 0F72h ;# 
   483  0000                     # 1168 "C:\Program Files (x86)\Microchip\xc8\v2.00\pic\include\pic18f4550.h"
   484                           UEP3 equ 0F73h ;# 
   485  0000                     # 1276 "C:\Program Files (x86)\Microchip\xc8\v2.00\pic\include\pic18f4550.h"
   486                           UEP4 equ 0F74h ;# 
   487  0000                     # 1384 "C:\Program Files (x86)\Microchip\xc8\v2.00\pic\include\pic18f4550.h"
   488                           UEP5 equ 0F75h ;# 
   489  0000                     # 1492 "C:\Program Files (x86)\Microchip\xc8\v2.00\pic\include\pic18f4550.h"
   490                           UEP6 equ 0F76h ;# 
   491  0000                     # 1600 "C:\Program Files (x86)\Microchip\xc8\v2.00\pic\include\pic18f4550.h"
   492                           UEP7 equ 0F77h ;# 
   493  0000                     # 1708 "C:\Program Files (x86)\Microchip\xc8\v2.00\pic\include\pic18f4550.h"
   494                           UEP8 equ 0F78h ;# 
   495  0000                     # 1784 "C:\Program Files (x86)\Microchip\xc8\v2.00\pic\include\pic18f4550.h"
   496                           UEP9 equ 0F79h ;# 
   497  0000                     # 1860 "C:\Program Files (x86)\Microchip\xc8\v2.00\pic\include\pic18f4550.h"
   498                           UEP10 equ 0F7Ah ;# 
   499  0000                     # 1936 "C:\Program Files (x86)\Microchip\xc8\v2.00\pic\include\pic18f4550.h"
   500                           UEP11 equ 0F7Bh ;# 
   501  0000                     # 2012 "C:\Program Files (x86)\Microchip\xc8\v2.00\pic\include\pic18f4550.h"
   502                           UEP12 equ 0F7Ch ;# 
   503  0000                     # 2088 "C:\Program Files (x86)\Microchip\xc8\v2.00\pic\include\pic18f4550.h"
   504                           UEP13 equ 0F7Dh ;# 
   505  0000                     # 2164 "C:\Program Files (x86)\Microchip\xc8\v2.00\pic\include\pic18f4550.h"
   506                           UEP14 equ 0F7Eh ;# 
   507  0000                     # 2240 "C:\Program Files (x86)\Microchip\xc8\v2.00\pic\include\pic18f4550.h"
   508                           UEP15 equ 0F7Fh ;# 
   509  0000                     # 2316 "C:\Program Files (x86)\Microchip\xc8\v2.00\pic\include\pic18f4550.h"
   510                           PORTA equ 0F80h ;# 
   511  0000                     # 2455 "C:\Program Files (x86)\Microchip\xc8\v2.00\pic\include\pic18f4550.h"
   512                           PORTB equ 0F81h ;# 
   513  0000                     # 2565 "C:\Program Files (x86)\Microchip\xc8\v2.00\pic\include\pic18f4550.h"
   514                           PORTC equ 0F82h ;# 
   515  0000                     # 2707 "C:\Program Files (x86)\Microchip\xc8\v2.00\pic\include\pic18f4550.h"
   516                           PORTD equ 0F83h ;# 
   517  0000                     # 2828 "C:\Program Files (x86)\Microchip\xc8\v2.00\pic\include\pic18f4550.h"
   518                           PORTE equ 0F84h ;# 
   519  0000                     # 2975 "C:\Program Files (x86)\Microchip\xc8\v2.00\pic\include\pic18f4550.h"
   520                           LATA equ 0F89h ;# 
   521  0000                     # 3075 "C:\Program Files (x86)\Microchip\xc8\v2.00\pic\include\pic18f4550.h"
   522                           LATB equ 0F8Ah ;# 
   523  0000                     # 3187 "C:\Program Files (x86)\Microchip\xc8\v2.00\pic\include\pic18f4550.h"
   524                           LATC equ 0F8Bh ;# 
   525  0000                     # 3265 "C:\Program Files (x86)\Microchip\xc8\v2.00\pic\include\pic18f4550.h"
   526                           LATD equ 0F8Ch ;# 
   527  0000                     # 3377 "C:\Program Files (x86)\Microchip\xc8\v2.00\pic\include\pic18f4550.h"
   528                           LATE equ 0F8Dh ;# 
   529  0000                     # 3429 "C:\Program Files (x86)\Microchip\xc8\v2.00\pic\include\pic18f4550.h"
   530                           TRISA equ 0F92h ;# 
   531  0000                     # 3434 "C:\Program Files (x86)\Microchip\xc8\v2.00\pic\include\pic18f4550.h"
   532                           DDRA equ 0F92h ;# 
   533  0000                     # 3627 "C:\Program Files (x86)\Microchip\xc8\v2.00\pic\include\pic18f4550.h"
   534                           TRISB equ 0F93h ;# 
   535  0000                     # 3632 "C:\Program Files (x86)\Microchip\xc8\v2.00\pic\include\pic18f4550.h"
   536                           DDRB equ 0F93h ;# 
   537  0000                     # 3849 "C:\Program Files (x86)\Microchip\xc8\v2.00\pic\include\pic18f4550.h"
   538                           TRISC equ 0F94h ;# 
   539  0000                     # 3854 "C:\Program Files (x86)\Microchip\xc8\v2.00\pic\include\pic18f4550.h"
   540                           DDRC equ 0F94h ;# 
   541  0000                     # 4003 "C:\Program Files (x86)\Microchip\xc8\v2.00\pic\include\pic18f4550.h"
   542                           TRISD equ 0F95h ;# 
   543  0000                     # 4008 "C:\Program Files (x86)\Microchip\xc8\v2.00\pic\include\pic18f4550.h"
   544                           DDRD equ 0F95h ;# 
   545  0000                     # 4225 "C:\Program Files (x86)\Microchip\xc8\v2.00\pic\include\pic18f4550.h"
   546                           TRISE equ 0F96h ;# 
   547  0000                     # 4230 "C:\Program Files (x86)\Microchip\xc8\v2.00\pic\include\pic18f4550.h"
   548                           DDRE equ 0F96h ;# 
   549  0000                     # 4327 "C:\Program Files (x86)\Microchip\xc8\v2.00\pic\include\pic18f4550.h"
   550                           OSCTUNE equ 0F9Bh ;# 
   551  0000                     # 4386 "C:\Program Files (x86)\Microchip\xc8\v2.00\pic\include\pic18f4550.h"
   552                           PIE1 equ 0F9Dh ;# 
   553  0000                     # 4470 "C:\Program Files (x86)\Microchip\xc8\v2.00\pic\include\pic18f4550.h"
   554                           PIR1 equ 0F9Eh ;# 
   555  0000                     # 4554 "C:\Program Files (x86)\Microchip\xc8\v2.00\pic\include\pic18f4550.h"
   556                           IPR1 equ 0F9Fh ;# 
   557  0000                     # 4638 "C:\Program Files (x86)\Microchip\xc8\v2.00\pic\include\pic18f4550.h"
   558                           PIE2 equ 0FA0h ;# 
   559  0000                     # 4709 "C:\Program Files (x86)\Microchip\xc8\v2.00\pic\include\pic18f4550.h"
   560                           PIR2 equ 0FA1h ;# 
   561  0000                     # 4780 "C:\Program Files (x86)\Microchip\xc8\v2.00\pic\include\pic18f4550.h"
   562                           IPR2 equ 0FA2h ;# 
   563  0000                     # 4851 "C:\Program Files (x86)\Microchip\xc8\v2.00\pic\include\pic18f4550.h"
   564                           EECON1 equ 0FA6h ;# 
   565  0000                     # 4917 "C:\Program Files (x86)\Microchip\xc8\v2.00\pic\include\pic18f4550.h"
   566                           EECON2 equ 0FA7h ;# 
   567  0000                     # 4924 "C:\Program Files (x86)\Microchip\xc8\v2.00\pic\include\pic18f4550.h"
   568                           EEDATA equ 0FA8h ;# 
   569  0000                     # 4931 "C:\Program Files (x86)\Microchip\xc8\v2.00\pic\include\pic18f4550.h"
   570                           EEADR equ 0FA9h ;# 
   571  0000                     # 4938 "C:\Program Files (x86)\Microchip\xc8\v2.00\pic\include\pic18f4550.h"
   572                           RCSTA equ 0FABh ;# 
   573  0000                     # 4943 "C:\Program Files (x86)\Microchip\xc8\v2.00\pic\include\pic18f4550.h"
   574                           RCSTA1 equ 0FABh ;# 
   575  0000                     # 5148 "C:\Program Files (x86)\Microchip\xc8\v2.00\pic\include\pic18f4550.h"
   576                           TXSTA equ 0FACh ;# 
   577  0000                     # 5153 "C:\Program Files (x86)\Microchip\xc8\v2.00\pic\include\pic18f4550.h"
   578                           TXSTA1 equ 0FACh ;# 
   579  0000                     # 5404 "C:\Program Files (x86)\Microchip\xc8\v2.00\pic\include\pic18f4550.h"
   580                           TXREG equ 0FADh ;# 
   581  0000                     # 5409 "C:\Program Files (x86)\Microchip\xc8\v2.00\pic\include\pic18f4550.h"
   582                           TXREG1 equ 0FADh ;# 
   583  0000                     # 5416 "C:\Program Files (x86)\Microchip\xc8\v2.00\pic\include\pic18f4550.h"
   584                           RCREG equ 0FAEh ;# 
   585  0000                     # 5421 "C:\Program Files (x86)\Microchip\xc8\v2.00\pic\include\pic18f4550.h"
   586                           RCREG1 equ 0FAEh ;# 
   587  0000                     # 5428 "C:\Program Files (x86)\Microchip\xc8\v2.00\pic\include\pic18f4550.h"
   588                           SPBRG equ 0FAFh ;# 
   589  0000                     # 5433 "C:\Program Files (x86)\Microchip\xc8\v2.00\pic\include\pic18f4550.h"
   590                           SPBRG1 equ 0FAFh ;# 
   591  0000                     # 5440 "C:\Program Files (x86)\Microchip\xc8\v2.00\pic\include\pic18f4550.h"
   592                           SPBRGH equ 0FB0h ;# 
   593  0000                     # 5447 "C:\Program Files (x86)\Microchip\xc8\v2.00\pic\include\pic18f4550.h"
   594                           T3CON equ 0FB1h ;# 
   595  0000                     # 5568 "C:\Program Files (x86)\Microchip\xc8\v2.00\pic\include\pic18f4550.h"
   596                           TMR3 equ 0FB2h ;# 
   597  0000                     # 5575 "C:\Program Files (x86)\Microchip\xc8\v2.00\pic\include\pic18f4550.h"
   598                           TMR3L equ 0FB2h ;# 
   599  0000                     # 5582 "C:\Program Files (x86)\Microchip\xc8\v2.00\pic\include\pic18f4550.h"
   600                           TMR3H equ 0FB3h ;# 
   601  0000                     # 5589 "C:\Program Files (x86)\Microchip\xc8\v2.00\pic\include\pic18f4550.h"
   602                           CMCON equ 0FB4h ;# 
   603  0000                     # 5679 "C:\Program Files (x86)\Microchip\xc8\v2.00\pic\include\pic18f4550.h"
   604                           CVRCON equ 0FB5h ;# 
   605  0000                     # 5764 "C:\Program Files (x86)\Microchip\xc8\v2.00\pic\include\pic18f4550.h"
   606                           ECCP1AS equ 0FB6h ;# 
   607  0000                     # 5769 "C:\Program Files (x86)\Microchip\xc8\v2.00\pic\include\pic18f4550.h"
   608                           CCP1AS equ 0FB6h ;# 
   609  0000                     # 5926 "C:\Program Files (x86)\Microchip\xc8\v2.00\pic\include\pic18f4550.h"
   610                           ECCP1DEL equ 0FB7h ;# 
   611  0000                     # 5931 "C:\Program Files (x86)\Microchip\xc8\v2.00\pic\include\pic18f4550.h"
   612                           CCP1DEL equ 0FB7h ;# 
   613  0000                     # 6064 "C:\Program Files (x86)\Microchip\xc8\v2.00\pic\include\pic18f4550.h"
   614                           BAUDCON equ 0FB8h ;# 
   615  0000                     # 6069 "C:\Program Files (x86)\Microchip\xc8\v2.00\pic\include\pic18f4550.h"
   616                           BAUDCTL equ 0FB8h ;# 
   617  0000                     # 6244 "C:\Program Files (x86)\Microchip\xc8\v2.00\pic\include\pic18f4550.h"
   618                           CCP2CON equ 0FBAh ;# 
   619  0000                     # 6308 "C:\Program Files (x86)\Microchip\xc8\v2.00\pic\include\pic18f4550.h"
   620                           CCPR2 equ 0FBBh ;# 
   621  0000                     # 6315 "C:\Program Files (x86)\Microchip\xc8\v2.00\pic\include\pic18f4550.h"
   622                           CCPR2L equ 0FBBh ;# 
   623  0000                     # 6322 "C:\Program Files (x86)\Microchip\xc8\v2.00\pic\include\pic18f4550.h"
   624                           CCPR2H equ 0FBCh ;# 
   625  0000                     # 6329 "C:\Program Files (x86)\Microchip\xc8\v2.00\pic\include\pic18f4550.h"
   626                           CCP1CON equ 0FBDh ;# 
   627  0000                     # 6334 "C:\Program Files (x86)\Microchip\xc8\v2.00\pic\include\pic18f4550.h"
   628                           ECCP1CON equ 0FBDh ;# 
   629  0000                     # 6491 "C:\Program Files (x86)\Microchip\xc8\v2.00\pic\include\pic18f4550.h"
   630                           CCPR1 equ 0FBEh ;# 
   631  0000                     # 6498 "C:\Program Files (x86)\Microchip\xc8\v2.00\pic\include\pic18f4550.h"
   632                           CCPR1L equ 0FBEh ;# 
   633  0000                     # 6505 "C:\Program Files (x86)\Microchip\xc8\v2.00\pic\include\pic18f4550.h"
   634                           CCPR1H equ 0FBFh ;# 
   635  0000                     # 6512 "C:\Program Files (x86)\Microchip\xc8\v2.00\pic\include\pic18f4550.h"
   636                           ADCON2 equ 0FC0h ;# 
   637  0000                     # 6583 "C:\Program Files (x86)\Microchip\xc8\v2.00\pic\include\pic18f4550.h"
   638                           ADCON1 equ 0FC1h ;# 
   639  0000                     # 6668 "C:\Program Files (x86)\Microchip\xc8\v2.00\pic\include\pic18f4550.h"
   640                           ADCON0 equ 0FC2h ;# 
   641  0000                     # 6787 "C:\Program Files (x86)\Microchip\xc8\v2.00\pic\include\pic18f4550.h"
   642                           ADRES equ 0FC3h ;# 
   643  0000                     # 6794 "C:\Program Files (x86)\Microchip\xc8\v2.00\pic\include\pic18f4550.h"
   644                           ADRESL equ 0FC3h ;# 
   645  0000                     # 6801 "C:\Program Files (x86)\Microchip\xc8\v2.00\pic\include\pic18f4550.h"
   646                           ADRESH equ 0FC4h ;# 
   647  0000                     # 6808 "C:\Program Files (x86)\Microchip\xc8\v2.00\pic\include\pic18f4550.h"
   648                           SSPCON2 equ 0FC5h ;# 
   649  0000                     # 6870 "C:\Program Files (x86)\Microchip\xc8\v2.00\pic\include\pic18f4550.h"
   650                           SSPCON1 equ 0FC6h ;# 
   651  0000                     # 6940 "C:\Program Files (x86)\Microchip\xc8\v2.00\pic\include\pic18f4550.h"
   652                           SSPSTAT equ 0FC7h ;# 
   653  0000                     # 7188 "C:\Program Files (x86)\Microchip\xc8\v2.00\pic\include\pic18f4550.h"
   654                           SSPADD equ 0FC8h ;# 
   655  0000                     # 7195 "C:\Program Files (x86)\Microchip\xc8\v2.00\pic\include\pic18f4550.h"
   656                           SSPBUF equ 0FC9h ;# 
   657  0000                     # 7202 "C:\Program Files (x86)\Microchip\xc8\v2.00\pic\include\pic18f4550.h"
   658                           T2CON equ 0FCAh ;# 
   659  0000                     # 7300 "C:\Program Files (x86)\Microchip\xc8\v2.00\pic\include\pic18f4550.h"
   660                           PR2 equ 0FCBh ;# 
   661  0000                     # 7305 "C:\Program Files (x86)\Microchip\xc8\v2.00\pic\include\pic18f4550.h"
   662                           MEMCON equ 0FCBh ;# 
   663  0000                     # 7410 "C:\Program Files (x86)\Microchip\xc8\v2.00\pic\include\pic18f4550.h"
   664                           TMR2 equ 0FCCh ;# 
   665  0000                     # 7417 "C:\Program Files (x86)\Microchip\xc8\v2.00\pic\include\pic18f4550.h"
   666                           T1CON equ 0FCDh ;# 
   667  0000                     # 7520 "C:\Program Files (x86)\Microchip\xc8\v2.00\pic\include\pic18f4550.h"
   668                           TMR1 equ 0FCEh ;# 
   669  0000                     # 7527 "C:\Program Files (x86)\Microchip\xc8\v2.00\pic\include\pic18f4550.h"
   670                           TMR1L equ 0FCEh ;# 
   671  0000                     # 7534 "C:\Program Files (x86)\Microchip\xc8\v2.00\pic\include\pic18f4550.h"
   672                           TMR1H equ 0FCFh ;# 
   673  0000                     # 7541 "C:\Program Files (x86)\Microchip\xc8\v2.00\pic\include\pic18f4550.h"
   674                           RCON equ 0FD0h ;# 
   675  0000                     # 7690 "C:\Program Files (x86)\Microchip\xc8\v2.00\pic\include\pic18f4550.h"
   676                           WDTCON equ 0FD1h ;# 
   677  0000                     # 7718 "C:\Program Files (x86)\Microchip\xc8\v2.00\pic\include\pic18f4550.h"
   678                           HLVDCON equ 0FD2h ;# 
   679  0000                     # 7723 "C:\Program Files (x86)\Microchip\xc8\v2.00\pic\include\pic18f4550.h"
   680                           LVDCON equ 0FD2h ;# 
   681  0000                     # 7988 "C:\Program Files (x86)\Microchip\xc8\v2.00\pic\include\pic18f4550.h"
   682                           OSCCON equ 0FD3h ;# 
   683  0000                     # 8071 "C:\Program Files (x86)\Microchip\xc8\v2.00\pic\include\pic18f4550.h"
   684                           T0CON equ 0FD5h ;# 
   685  0000                     # 8141 "C:\Program Files (x86)\Microchip\xc8\v2.00\pic\include\pic18f4550.h"
   686                           TMR0 equ 0FD6h ;# 
   687  0000                     # 8148 "C:\Program Files (x86)\Microchip\xc8\v2.00\pic\include\pic18f4550.h"
   688                           TMR0L equ 0FD6h ;# 
   689  0000                     # 8155 "C:\Program Files (x86)\Microchip\xc8\v2.00\pic\include\pic18f4550.h"
   690                           TMR0H equ 0FD7h ;# 
   691  0000                     # 8162 "C:\Program Files (x86)\Microchip\xc8\v2.00\pic\include\pic18f4550.h"
   692                           STATUS equ 0FD8h ;# 
   693  0000                     # 8233 "C:\Program Files (x86)\Microchip\xc8\v2.00\pic\include\pic18f4550.h"
   694                           FSR2 equ 0FD9h ;# 
   695  0000                     # 8240 "C:\Program Files (x86)\Microchip\xc8\v2.00\pic\include\pic18f4550.h"
   696                           FSR2L equ 0FD9h ;# 
   697  0000                     # 8247 "C:\Program Files (x86)\Microchip\xc8\v2.00\pic\include\pic18f4550.h"
   698                           FSR2H equ 0FDAh ;# 
   699  0000                     # 8254 "C:\Program Files (x86)\Microchip\xc8\v2.00\pic\include\pic18f4550.h"
   700                           PLUSW2 equ 0FDBh ;# 
   701  0000                     # 8261 "C:\Program Files (x86)\Microchip\xc8\v2.00\pic\include\pic18f4550.h"
   702                           PREINC2 equ 0FDCh ;# 
   703  0000                     # 8268 "C:\Program Files (x86)\Microchip\xc8\v2.00\pic\include\pic18f4550.h"
   704                           POSTDEC2 equ 0FDDh ;# 
   705  0000                     # 8275 "C:\Program Files (x86)\Microchip\xc8\v2.00\pic\include\pic18f4550.h"
   706                           POSTINC2 equ 0FDEh ;# 
   707  0000                     # 8282 "C:\Program Files (x86)\Microchip\xc8\v2.00\pic\include\pic18f4550.h"
   708                           INDF2 equ 0FDFh ;# 
   709  0000                     # 8289 "C:\Program Files (x86)\Microchip\xc8\v2.00\pic\include\pic18f4550.h"
   710                           BSR equ 0FE0h ;# 
   711  0000                     # 8296 "C:\Program Files (x86)\Microchip\xc8\v2.00\pic\include\pic18f4550.h"
   712                           FSR1 equ 0FE1h ;# 
   713  0000                     # 8303 "C:\Program Files (x86)\Microchip\xc8\v2.00\pic\include\pic18f4550.h"
   714                           FSR1L equ 0FE1h ;# 
   715  0000                     # 8310 "C:\Program Files (x86)\Microchip\xc8\v2.00\pic\include\pic18f4550.h"
   716                           FSR1H equ 0FE2h ;# 
   717  0000                     # 8317 "C:\Program Files (x86)\Microchip\xc8\v2.00\pic\include\pic18f4550.h"
   718                           PLUSW1 equ 0FE3h ;# 
   719  0000                     # 8324 "C:\Program Files (x86)\Microchip\xc8\v2.00\pic\include\pic18f4550.h"
   720                           PREINC1 equ 0FE4h ;# 
   721  0000                     # 8331 "C:\Program Files (x86)\Microchip\xc8\v2.00\pic\include\pic18f4550.h"
   722                           POSTDEC1 equ 0FE5h ;# 
   723  0000                     # 8338 "C:\Program Files (x86)\Microchip\xc8\v2.00\pic\include\pic18f4550.h"
   724                           POSTINC1 equ 0FE6h ;# 
   725  0000                     # 8345 "C:\Program Files (x86)\Microchip\xc8\v2.00\pic\include\pic18f4550.h"
   726                           INDF1 equ 0FE7h ;# 
   727  0000                     # 8352 "C:\Program Files (x86)\Microchip\xc8\v2.00\pic\include\pic18f4550.h"
   728                           WREG equ 0FE8h ;# 
   729  0000                     # 8359 "C:\Program Files (x86)\Microchip\xc8\v2.00\pic\include\pic18f4550.h"
   730                           FSR0 equ 0FE9h ;# 
   731  0000                     # 8366 "C:\Program Files (x86)\Microchip\xc8\v2.00\pic\include\pic18f4550.h"
   732                           FSR0L equ 0FE9h ;# 
   733  0000                     # 8373 "C:\Program Files (x86)\Microchip\xc8\v2.00\pic\include\pic18f4550.h"
   734                           FSR0H equ 0FEAh ;# 
   735  0000                     # 8380 "C:\Program Files (x86)\Microchip\xc8\v2.00\pic\include\pic18f4550.h"
   736                           PLUSW0 equ 0FEBh ;# 
   737  0000                     # 8387 "C:\Program Files (x86)\Microchip\xc8\v2.00\pic\include\pic18f4550.h"
   738                           PREINC0 equ 0FECh ;# 
   739  0000                     # 8394 "C:\Program Files (x86)\Microchip\xc8\v2.00\pic\include\pic18f4550.h"
   740                           POSTDEC0 equ 0FEDh ;# 
   741  0000                     # 8401 "C:\Program Files (x86)\Microchip\xc8\v2.00\pic\include\pic18f4550.h"
   742                           POSTINC0 equ 0FEEh ;# 
   743  0000                     # 8408 "C:\Program Files (x86)\Microchip\xc8\v2.00\pic\include\pic18f4550.h"
   744                           INDF0 equ 0FEFh ;# 
   745  0000                     # 8415 "C:\Program Files (x86)\Microchip\xc8\v2.00\pic\include\pic18f4550.h"
   746                           INTCON3 equ 0FF0h ;# 
   747  0000                     # 8507 "C:\Program Files (x86)\Microchip\xc8\v2.00\pic\include\pic18f4550.h"
   748                           INTCON2 equ 0FF1h ;# 
   749  0000                     # 8584 "C:\Program Files (x86)\Microchip\xc8\v2.00\pic\include\pic18f4550.h"
   750                           INTCON equ 0FF2h ;# 
   751  0000                     # 8701 "C:\Program Files (x86)\Microchip\xc8\v2.00\pic\include\pic18f4550.h"
   752                           PROD equ 0FF3h ;# 
   753  0000                     # 8708 "C:\Program Files (x86)\Microchip\xc8\v2.00\pic\include\pic18f4550.h"
   754                           PRODL equ 0FF3h ;# 
   755  0000                     # 8715 "C:\Program Files (x86)\Microchip\xc8\v2.00\pic\include\pic18f4550.h"
   756                           PRODH equ 0FF4h ;# 
   757  0000                     # 8722 "C:\Program Files (x86)\Microchip\xc8\v2.00\pic\include\pic18f4550.h"
   758                           TABLAT equ 0FF5h ;# 
   759  0000                     # 8731 "C:\Program Files (x86)\Microchip\xc8\v2.00\pic\include\pic18f4550.h"
   760                           TBLPTR equ 0FF6h ;# 
   761  0000                     # 8738 "C:\Program Files (x86)\Microchip\xc8\v2.00\pic\include\pic18f4550.h"
   762                           TBLPTRL equ 0FF6h ;# 
   763  0000                     # 8745 "C:\Program Files (x86)\Microchip\xc8\v2.00\pic\include\pic18f4550.h"
   764                           TBLPTRH equ 0FF7h ;# 
   765  0000                     # 8752 "C:\Program Files (x86)\Microchip\xc8\v2.00\pic\include\pic18f4550.h"
   766                           TBLPTRU equ 0FF8h ;# 
   767  0000                     # 8761 "C:\Program Files (x86)\Microchip\xc8\v2.00\pic\include\pic18f4550.h"
   768                           PCLAT equ 0FF9h ;# 
   769  0000                     # 8768 "C:\Program Files (x86)\Microchip\xc8\v2.00\pic\include\pic18f4550.h"
   770                           PC equ 0FF9h ;# 
   771  0000                     # 8775 "C:\Program Files (x86)\Microchip\xc8\v2.00\pic\include\pic18f4550.h"
   772                           PCL equ 0FF9h ;# 
   773  0000                     # 8782 "C:\Program Files (x86)\Microchip\xc8\v2.00\pic\include\pic18f4550.h"
   774                           PCLATH equ 0FFAh ;# 
   775  0000                     # 8789 "C:\Program Files (x86)\Microchip\xc8\v2.00\pic\include\pic18f4550.h"
   776                           PCLATU equ 0FFBh ;# 
   777  0000                     # 8796 "C:\Program Files (x86)\Microchip\xc8\v2.00\pic\include\pic18f4550.h"
   778                           STKPTR equ 0FFCh ;# 
   779  0000                     # 8872 "C:\Program Files (x86)\Microchip\xc8\v2.00\pic\include\pic18f4550.h"
   780                           TOS equ 0FFDh ;# 
   781  0000                     # 8879 "C:\Program Files (x86)\Microchip\xc8\v2.00\pic\include\pic18f4550.h"
   782                           TOSL equ 0FFDh ;# 
   783  0000                     # 8886 "C:\Program Files (x86)\Microchip\xc8\v2.00\pic\include\pic18f4550.h"
   784                           TOSH equ 0FFEh ;# 
   785  0000                     # 8893 "C:\Program Files (x86)\Microchip\xc8\v2.00\pic\include\pic18f4550.h"
   786                           TOSU equ 0FFFh ;# 
   787  0000                     # 54 "C:\Program Files (x86)\Microchip\xc8\v2.00\pic\include\pic18f4550.h"
   788                           SPPDATA equ 0F62h ;# 
   789  0000                     # 74 "C:\Program Files (x86)\Microchip\xc8\v2.00\pic\include\pic18f4550.h"
   790                           SPPCFG equ 0F63h ;# 
   791  0000                     # 151 "C:\Program Files (x86)\Microchip\xc8\v2.00\pic\include\pic18f4550.h"
   792                           SPPEPS equ 0F64h ;# 
   793  0000                     # 225 "C:\Program Files (x86)\Microchip\xc8\v2.00\pic\include\pic18f4550.h"
   794                           SPPCON equ 0F65h ;# 
   795  0000                     # 251 "C:\Program Files (x86)\Microchip\xc8\v2.00\pic\include\pic18f4550.h"
   796                           UFRM equ 0F66h ;# 
   797  0000                     # 258 "C:\Program Files (x86)\Microchip\xc8\v2.00\pic\include\pic18f4550.h"
   798                           UFRML equ 0F66h ;# 
   799  0000                     # 336 "C:\Program Files (x86)\Microchip\xc8\v2.00\pic\include\pic18f4550.h"
   800                           UFRMH equ 0F67h ;# 
   801  0000                     # 376 "C:\Program Files (x86)\Microchip\xc8\v2.00\pic\include\pic18f4550.h"
   802                           UIR equ 0F68h ;# 
   803  0000                     # 432 "C:\Program Files (x86)\Microchip\xc8\v2.00\pic\include\pic18f4550.h"
   804                           UIE equ 0F69h ;# 
   805  0000                     # 488 "C:\Program Files (x86)\Microchip\xc8\v2.00\pic\include\pic18f4550.h"
   806                           UEIR equ 0F6Ah ;# 
   807  0000                     # 539 "C:\Program Files (x86)\Microchip\xc8\v2.00\pic\include\pic18f4550.h"
   808                           UEIE equ 0F6Bh ;# 
   809  0000                     # 590 "C:\Program Files (x86)\Microchip\xc8\v2.00\pic\include\pic18f4550.h"
   810                           USTAT equ 0F6Ch ;# 
   811  0000                     # 650 "C:\Program Files (x86)\Microchip\xc8\v2.00\pic\include\pic18f4550.h"
   812                           UCON equ 0F6Dh ;# 
   813  0000                     # 701 "C:\Program Files (x86)\Microchip\xc8\v2.00\pic\include\pic18f4550.h"
   814                           UADDR equ 0F6Eh ;# 
   815  0000                     # 765 "C:\Program Files (x86)\Microchip\xc8\v2.00\pic\include\pic18f4550.h"
   816                           UCFG equ 0F6Fh ;# 
   817  0000                     # 844 "C:\Program Files (x86)\Microchip\xc8\v2.00\pic\include\pic18f4550.h"
   818                           UEP0 equ 0F70h ;# 
   819  0000                     # 952 "C:\Program Files (x86)\Microchip\xc8\v2.00\pic\include\pic18f4550.h"
   820                           UEP1 equ 0F71h ;# 
   821  0000                     # 1060 "C:\Program Files (x86)\Microchip\xc8\v2.00\pic\include\pic18f4550.h"
   822                           UEP2 equ 0F72h ;# 
   823  0000                     # 1168 "C:\Program Files (x86)\Microchip\xc8\v2.00\pic\include\pic18f4550.h"
   824                           UEP3 equ 0F73h ;# 
   825  0000                     # 1276 "C:\Program Files (x86)\Microchip\xc8\v2.00\pic\include\pic18f4550.h"
   826                           UEP4 equ 0F74h ;# 
   827  0000                     # 1384 "C:\Program Files (x86)\Microchip\xc8\v2.00\pic\include\pic18f4550.h"
   828                           UEP5 equ 0F75h ;# 
   829  0000                     # 1492 "C:\Program Files (x86)\Microchip\xc8\v2.00\pic\include\pic18f4550.h"
   830                           UEP6 equ 0F76h ;# 
   831  0000                     # 1600 "C:\Program Files (x86)\Microchip\xc8\v2.00\pic\include\pic18f4550.h"
   832                           UEP7 equ 0F77h ;# 
   833  0000                     # 1708 "C:\Program Files (x86)\Microchip\xc8\v2.00\pic\include\pic18f4550.h"
   834                           UEP8 equ 0F78h ;# 
   835  0000                     # 1784 "C:\Program Files (x86)\Microchip\xc8\v2.00\pic\include\pic18f4550.h"
   836                           UEP9 equ 0F79h ;# 
   837  0000                     # 1860 "C:\Program Files (x86)\Microchip\xc8\v2.00\pic\include\pic18f4550.h"
   838                           UEP10 equ 0F7Ah ;# 
   839  0000                     # 1936 "C:\Program Files (x86)\Microchip\xc8\v2.00\pic\include\pic18f4550.h"
   840                           UEP11 equ 0F7Bh ;# 
   841  0000                     # 2012 "C:\Program Files (x86)\Microchip\xc8\v2.00\pic\include\pic18f4550.h"
   842                           UEP12 equ 0F7Ch ;# 
   843  0000                     # 2088 "C:\Program Files (x86)\Microchip\xc8\v2.00\pic\include\pic18f4550.h"
   844                           UEP13 equ 0F7Dh ;# 
   845  0000                     # 2164 "C:\Program Files (x86)\Microchip\xc8\v2.00\pic\include\pic18f4550.h"
   846                           UEP14 equ 0F7Eh ;# 
   847  0000                     # 2240 "C:\Program Files (x86)\Microchip\xc8\v2.00\pic\include\pic18f4550.h"
   848                           UEP15 equ 0F7Fh ;# 
   849  0000                     # 2316 "C:\Program Files (x86)\Microchip\xc8\v2.00\pic\include\pic18f4550.h"
   850                           PORTA equ 0F80h ;# 
   851  0000                     # 2455 "C:\Program Files (x86)\Microchip\xc8\v2.00\pic\include\pic18f4550.h"
   852                           PORTB equ 0F81h ;# 
   853  0000                     # 2565 "C:\Program Files (x86)\Microchip\xc8\v2.00\pic\include\pic18f4550.h"
   854                           PORTC equ 0F82h ;# 
   855  0000                     # 2707 "C:\Program Files (x86)\Microchip\xc8\v2.00\pic\include\pic18f4550.h"
   856                           PORTD equ 0F83h ;# 
   857  0000                     # 2828 "C:\Program Files (x86)\Microchip\xc8\v2.00\pic\include\pic18f4550.h"
   858                           PORTE equ 0F84h ;# 
   859  0000                     # 2975 "C:\Program Files (x86)\Microchip\xc8\v2.00\pic\include\pic18f4550.h"
   860                           LATA equ 0F89h ;# 
   861  0000                     # 3075 "C:\Program Files (x86)\Microchip\xc8\v2.00\pic\include\pic18f4550.h"
   862                           LATB equ 0F8Ah ;# 
   863  0000                     # 3187 "C:\Program Files (x86)\Microchip\xc8\v2.00\pic\include\pic18f4550.h"
   864                           LATC equ 0F8Bh ;# 
   865  0000                     # 3265 "C:\Program Files (x86)\Microchip\xc8\v2.00\pic\include\pic18f4550.h"
   866                           LATD equ 0F8Ch ;# 
   867  0000                     # 3377 "C:\Program Files (x86)\Microchip\xc8\v2.00\pic\include\pic18f4550.h"
   868                           LATE equ 0F8Dh ;# 
   869  0000                     # 3429 "C:\Program Files (x86)\Microchip\xc8\v2.00\pic\include\pic18f4550.h"
   870                           TRISA equ 0F92h ;# 
   871  0000                     # 3434 "C:\Program Files (x86)\Microchip\xc8\v2.00\pic\include\pic18f4550.h"
   872                           DDRA equ 0F92h ;# 
   873  0000                     # 3627 "C:\Program Files (x86)\Microchip\xc8\v2.00\pic\include\pic18f4550.h"
   874                           TRISB equ 0F93h ;# 
   875  0000                     # 3632 "C:\Program Files (x86)\Microchip\xc8\v2.00\pic\include\pic18f4550.h"
   876                           DDRB equ 0F93h ;# 
   877  0000                     # 3849 "C:\Program Files (x86)\Microchip\xc8\v2.00\pic\include\pic18f4550.h"
   878                           TRISC equ 0F94h ;# 
   879  0000                     # 3854 "C:\Program Files (x86)\Microchip\xc8\v2.00\pic\include\pic18f4550.h"
   880                           DDRC equ 0F94h ;# 
   881  0000                     # 4003 "C:\Program Files (x86)\Microchip\xc8\v2.00\pic\include\pic18f4550.h"
   882                           TRISD equ 0F95h ;# 
   883  0000                     # 4008 "C:\Program Files (x86)\Microchip\xc8\v2.00\pic\include\pic18f4550.h"
   884                           DDRD equ 0F95h ;# 
   885  0000                     # 4225 "C:\Program Files (x86)\Microchip\xc8\v2.00\pic\include\pic18f4550.h"
   886                           TRISE equ 0F96h ;# 
   887  0000                     # 4230 "C:\Program Files (x86)\Microchip\xc8\v2.00\pic\include\pic18f4550.h"
   888                           DDRE equ 0F96h ;# 
   889  0000                     # 4327 "C:\Program Files (x86)\Microchip\xc8\v2.00\pic\include\pic18f4550.h"
   890                           OSCTUNE equ 0F9Bh ;# 
   891  0000                     # 4386 "C:\Program Files (x86)\Microchip\xc8\v2.00\pic\include\pic18f4550.h"
   892                           PIE1 equ 0F9Dh ;# 
   893  0000                     # 4470 "C:\Program Files (x86)\Microchip\xc8\v2.00\pic\include\pic18f4550.h"
   894                           PIR1 equ 0F9Eh ;# 
   895  0000                     # 4554 "C:\Program Files (x86)\Microchip\xc8\v2.00\pic\include\pic18f4550.h"
   896                           IPR1 equ 0F9Fh ;# 
   897  0000                     # 4638 "C:\Program Files (x86)\Microchip\xc8\v2.00\pic\include\pic18f4550.h"
   898                           PIE2 equ 0FA0h ;# 
   899  0000                     # 4709 "C:\Program Files (x86)\Microchip\xc8\v2.00\pic\include\pic18f4550.h"
   900                           PIR2 equ 0FA1h ;# 
   901  0000                     # 4780 "C:\Program Files (x86)\Microchip\xc8\v2.00\pic\include\pic18f4550.h"
   902                           IPR2 equ 0FA2h ;# 
   903  0000                     # 4851 "C:\Program Files (x86)\Microchip\xc8\v2.00\pic\include\pic18f4550.h"
   904                           EECON1 equ 0FA6h ;# 
   905  0000                     # 4917 "C:\Program Files (x86)\Microchip\xc8\v2.00\pic\include\pic18f4550.h"
   906                           EECON2 equ 0FA7h ;# 
   907  0000                     # 4924 "C:\Program Files (x86)\Microchip\xc8\v2.00\pic\include\pic18f4550.h"
   908                           EEDATA equ 0FA8h ;# 
   909  0000                     # 4931 "C:\Program Files (x86)\Microchip\xc8\v2.00\pic\include\pic18f4550.h"
   910                           EEADR equ 0FA9h ;# 
   911  0000                     # 4938 "C:\Program Files (x86)\Microchip\xc8\v2.00\pic\include\pic18f4550.h"
   912                           RCSTA equ 0FABh ;# 
   913  0000                     # 4943 "C:\Program Files (x86)\Microchip\xc8\v2.00\pic\include\pic18f4550.h"
   914                           RCSTA1 equ 0FABh ;# 
   915  0000                     # 5148 "C:\Program Files (x86)\Microchip\xc8\v2.00\pic\include\pic18f4550.h"
   916                           TXSTA equ 0FACh ;# 
   917  0000                     # 5153 "C:\Program Files (x86)\Microchip\xc8\v2.00\pic\include\pic18f4550.h"
   918                           TXSTA1 equ 0FACh ;# 
   919  0000                     # 5404 "C:\Program Files (x86)\Microchip\xc8\v2.00\pic\include\pic18f4550.h"
   920                           TXREG equ 0FADh ;# 
   921  0000                     # 5409 "C:\Program Files (x86)\Microchip\xc8\v2.00\pic\include\pic18f4550.h"
   922                           TXREG1 equ 0FADh ;# 
   923  0000                     # 5416 "C:\Program Files (x86)\Microchip\xc8\v2.00\pic\include\pic18f4550.h"
   924                           RCREG equ 0FAEh ;# 
   925  0000                     # 5421 "C:\Program Files (x86)\Microchip\xc8\v2.00\pic\include\pic18f4550.h"
   926                           RCREG1 equ 0FAEh ;# 
   927  0000                     # 5428 "C:\Program Files (x86)\Microchip\xc8\v2.00\pic\include\pic18f4550.h"
   928                           SPBRG equ 0FAFh ;# 
   929  0000                     # 5433 "C:\Program Files (x86)\Microchip\xc8\v2.00\pic\include\pic18f4550.h"
   930                           SPBRG1 equ 0FAFh ;# 
   931  0000                     # 5440 "C:\Program Files (x86)\Microchip\xc8\v2.00\pic\include\pic18f4550.h"
   932                           SPBRGH equ 0FB0h ;# 
   933  0000                     # 5447 "C:\Program Files (x86)\Microchip\xc8\v2.00\pic\include\pic18f4550.h"
   934                           T3CON equ 0FB1h ;# 
   935  0000                     # 5568 "C:\Program Files (x86)\Microchip\xc8\v2.00\pic\include\pic18f4550.h"
   936                           TMR3 equ 0FB2h ;# 
   937  0000                     # 5575 "C:\Program Files (x86)\Microchip\xc8\v2.00\pic\include\pic18f4550.h"
   938                           TMR3L equ 0FB2h ;# 
   939  0000                     # 5582 "C:\Program Files (x86)\Microchip\xc8\v2.00\pic\include\pic18f4550.h"
   940                           TMR3H equ 0FB3h ;# 
   941  0000                     # 5589 "C:\Program Files (x86)\Microchip\xc8\v2.00\pic\include\pic18f4550.h"
   942                           CMCON equ 0FB4h ;# 
   943  0000                     # 5679 "C:\Program Files (x86)\Microchip\xc8\v2.00\pic\include\pic18f4550.h"
   944                           CVRCON equ 0FB5h ;# 
   945  0000                     # 5764 "C:\Program Files (x86)\Microchip\xc8\v2.00\pic\include\pic18f4550.h"
   946                           ECCP1AS equ 0FB6h ;# 
   947  0000                     # 5769 "C:\Program Files (x86)\Microchip\xc8\v2.00\pic\include\pic18f4550.h"
   948                           CCP1AS equ 0FB6h ;# 
   949  0000                     # 5926 "C:\Program Files (x86)\Microchip\xc8\v2.00\pic\include\pic18f4550.h"
   950                           ECCP1DEL equ 0FB7h ;# 
   951  0000                     # 5931 "C:\Program Files (x86)\Microchip\xc8\v2.00\pic\include\pic18f4550.h"
   952                           CCP1DEL equ 0FB7h ;# 
   953  0000                     # 6064 "C:\Program Files (x86)\Microchip\xc8\v2.00\pic\include\pic18f4550.h"
   954                           BAUDCON equ 0FB8h ;# 
   955  0000                     # 6069 "C:\Program Files (x86)\Microchip\xc8\v2.00\pic\include\pic18f4550.h"
   956                           BAUDCTL equ 0FB8h ;# 
   957  0000                     # 6244 "C:\Program Files (x86)\Microchip\xc8\v2.00\pic\include\pic18f4550.h"
   958                           CCP2CON equ 0FBAh ;# 
   959  0000                     # 6308 "C:\Program Files (x86)\Microchip\xc8\v2.00\pic\include\pic18f4550.h"
   960                           CCPR2 equ 0FBBh ;# 
   961  0000                     # 6315 "C:\Program Files (x86)\Microchip\xc8\v2.00\pic\include\pic18f4550.h"
   962                           CCPR2L equ 0FBBh ;# 
   963  0000                     # 6322 "C:\Program Files (x86)\Microchip\xc8\v2.00\pic\include\pic18f4550.h"
   964                           CCPR2H equ 0FBCh ;# 
   965  0000                     # 6329 "C:\Program Files (x86)\Microchip\xc8\v2.00\pic\include\pic18f4550.h"
   966                           CCP1CON equ 0FBDh ;# 
   967  0000                     # 6334 "C:\Program Files (x86)\Microchip\xc8\v2.00\pic\include\pic18f4550.h"
   968                           ECCP1CON equ 0FBDh ;# 
   969  0000                     # 6491 "C:\Program Files (x86)\Microchip\xc8\v2.00\pic\include\pic18f4550.h"
   970                           CCPR1 equ 0FBEh ;# 
   971  0000                     # 6498 "C:\Program Files (x86)\Microchip\xc8\v2.00\pic\include\pic18f4550.h"
   972                           CCPR1L equ 0FBEh ;# 
   973  0000                     # 6505 "C:\Program Files (x86)\Microchip\xc8\v2.00\pic\include\pic18f4550.h"
   974                           CCPR1H equ 0FBFh ;# 
   975  0000                     # 6512 "C:\Program Files (x86)\Microchip\xc8\v2.00\pic\include\pic18f4550.h"
   976                           ADCON2 equ 0FC0h ;# 
   977  0000                     # 6583 "C:\Program Files (x86)\Microchip\xc8\v2.00\pic\include\pic18f4550.h"
   978                           ADCON1 equ 0FC1h ;# 
   979  0000                     # 6668 "C:\Program Files (x86)\Microchip\xc8\v2.00\pic\include\pic18f4550.h"
   980                           ADCON0 equ 0FC2h ;# 
   981  0000                     # 6787 "C:\Program Files (x86)\Microchip\xc8\v2.00\pic\include\pic18f4550.h"
   982                           ADRES equ 0FC3h ;# 
   983  0000                     # 6794 "C:\Program Files (x86)\Microchip\xc8\v2.00\pic\include\pic18f4550.h"
   984                           ADRESL equ 0FC3h ;# 
   985  0000                     # 6801 "C:\Program Files (x86)\Microchip\xc8\v2.00\pic\include\pic18f4550.h"
   986                           ADRESH equ 0FC4h ;# 
   987  0000                     # 6808 "C:\Program Files (x86)\Microchip\xc8\v2.00\pic\include\pic18f4550.h"
   988                           SSPCON2 equ 0FC5h ;# 
   989  0000                     # 6870 "C:\Program Files (x86)\Microchip\xc8\v2.00\pic\include\pic18f4550.h"
   990                           SSPCON1 equ 0FC6h ;# 
   991  0000                     # 6940 "C:\Program Files (x86)\Microchip\xc8\v2.00\pic\include\pic18f4550.h"
   992                           SSPSTAT equ 0FC7h ;# 
   993  0000                     # 7188 "C:\Program Files (x86)\Microchip\xc8\v2.00\pic\include\pic18f4550.h"
   994                           SSPADD equ 0FC8h ;# 
   995  0000                     # 7195 "C:\Program Files (x86)\Microchip\xc8\v2.00\pic\include\pic18f4550.h"
   996                           SSPBUF equ 0FC9h ;# 
   997  0000                     # 7202 "C:\Program Files (x86)\Microchip\xc8\v2.00\pic\include\pic18f4550.h"
   998                           T2CON equ 0FCAh ;# 
   999  0000                     # 7300 "C:\Program Files (x86)\Microchip\xc8\v2.00\pic\include\pic18f4550.h"
  1000                           PR2 equ 0FCBh ;# 
  1001  0000                     # 7305 "C:\Program Files (x86)\Microchip\xc8\v2.00\pic\include\pic18f4550.h"
  1002                           MEMCON equ 0FCBh ;# 
  1003  0000                     # 7410 "C:\Program Files (x86)\Microchip\xc8\v2.00\pic\include\pic18f4550.h"
  1004                           TMR2 equ 0FCCh ;# 
  1005  0000                     # 7417 "C:\Program Files (x86)\Microchip\xc8\v2.00\pic\include\pic18f4550.h"
  1006                           T1CON equ 0FCDh ;# 
  1007  0000                     # 7520 "C:\Program Files (x86)\Microchip\xc8\v2.00\pic\include\pic18f4550.h"
  1008                           TMR1 equ 0FCEh ;# 
  1009  0000                     # 7527 "C:\Program Files (x86)\Microchip\xc8\v2.00\pic\include\pic18f4550.h"
  1010                           TMR1L equ 0FCEh ;# 
  1011  0000                     # 7534 "C:\Program Files (x86)\Microchip\xc8\v2.00\pic\include\pic18f4550.h"
  1012                           TMR1H equ 0FCFh ;# 
  1013  0000                     # 7541 "C:\Program Files (x86)\Microchip\xc8\v2.00\pic\include\pic18f4550.h"
  1014                           RCON equ 0FD0h ;# 
  1015  0000                     # 7690 "C:\Program Files (x86)\Microchip\xc8\v2.00\pic\include\pic18f4550.h"
  1016                           WDTCON equ 0FD1h ;# 
  1017  0000                     # 7718 "C:\Program Files (x86)\Microchip\xc8\v2.00\pic\include\pic18f4550.h"
  1018                           HLVDCON equ 0FD2h ;# 
  1019  0000                     # 7723 "C:\Program Files (x86)\Microchip\xc8\v2.00\pic\include\pic18f4550.h"
  1020                           LVDCON equ 0FD2h ;# 
  1021  0000                     # 7988 "C:\Program Files (x86)\Microchip\xc8\v2.00\pic\include\pic18f4550.h"
  1022                           OSCCON equ 0FD3h ;# 
  1023  0000                     # 8071 "C:\Program Files (x86)\Microchip\xc8\v2.00\pic\include\pic18f4550.h"
  1024                           T0CON equ 0FD5h ;# 
  1025  0000                     # 8141 "C:\Program Files (x86)\Microchip\xc8\v2.00\pic\include\pic18f4550.h"
  1026                           TMR0 equ 0FD6h ;# 
  1027  0000                     # 8148 "C:\Program Files (x86)\Microchip\xc8\v2.00\pic\include\pic18f4550.h"
  1028                           TMR0L equ 0FD6h ;# 
  1029  0000                     # 8155 "C:\Program Files (x86)\Microchip\xc8\v2.00\pic\include\pic18f4550.h"
  1030                           TMR0H equ 0FD7h ;# 
  1031  0000                     # 8162 "C:\Program Files (x86)\Microchip\xc8\v2.00\pic\include\pic18f4550.h"
  1032                           STATUS equ 0FD8h ;# 
  1033  0000                     # 8233 "C:\Program Files (x86)\Microchip\xc8\v2.00\pic\include\pic18f4550.h"
  1034                           FSR2 equ 0FD9h ;# 
  1035  0000                     # 8240 "C:\Program Files (x86)\Microchip\xc8\v2.00\pic\include\pic18f4550.h"
  1036                           FSR2L equ 0FD9h ;# 
  1037  0000                     # 8247 "C:\Program Files (x86)\Microchip\xc8\v2.00\pic\include\pic18f4550.h"
  1038                           FSR2H equ 0FDAh ;# 
  1039  0000                     # 8254 "C:\Program Files (x86)\Microchip\xc8\v2.00\pic\include\pic18f4550.h"
  1040                           PLUSW2 equ 0FDBh ;# 
  1041  0000                     # 8261 "C:\Program Files (x86)\Microchip\xc8\v2.00\pic\include\pic18f4550.h"
  1042                           PREINC2 equ 0FDCh ;# 
  1043  0000                     # 8268 "C:\Program Files (x86)\Microchip\xc8\v2.00\pic\include\pic18f4550.h"
  1044                           POSTDEC2 equ 0FDDh ;# 
  1045  0000                     # 8275 "C:\Program Files (x86)\Microchip\xc8\v2.00\pic\include\pic18f4550.h"
  1046                           POSTINC2 equ 0FDEh ;# 
  1047  0000                     # 8282 "C:\Program Files (x86)\Microchip\xc8\v2.00\pic\include\pic18f4550.h"
  1048                           INDF2 equ 0FDFh ;# 
  1049  0000                     # 8289 "C:\Program Files (x86)\Microchip\xc8\v2.00\pic\include\pic18f4550.h"
  1050                           BSR equ 0FE0h ;# 
  1051  0000                     # 8296 "C:\Program Files (x86)\Microchip\xc8\v2.00\pic\include\pic18f4550.h"
  1052                           FSR1 equ 0FE1h ;# 
  1053  0000                     # 8303 "C:\Program Files (x86)\Microchip\xc8\v2.00\pic\include\pic18f4550.h"
  1054                           FSR1L equ 0FE1h ;# 
  1055  0000                     # 8310 "C:\Program Files (x86)\Microchip\xc8\v2.00\pic\include\pic18f4550.h"
  1056                           FSR1H equ 0FE2h ;# 
  1057  0000                     # 8317 "C:\Program Files (x86)\Microchip\xc8\v2.00\pic\include\pic18f4550.h"
  1058                           PLUSW1 equ 0FE3h ;# 
  1059  0000                     # 8324 "C:\Program Files (x86)\Microchip\xc8\v2.00\pic\include\pic18f4550.h"
  1060                           PREINC1 equ 0FE4h ;# 
  1061  0000                     # 8331 "C:\Program Files (x86)\Microchip\xc8\v2.00\pic\include\pic18f4550.h"
  1062                           POSTDEC1 equ 0FE5h ;# 
  1063  0000                     # 8338 "C:\Program Files (x86)\Microchip\xc8\v2.00\pic\include\pic18f4550.h"
  1064                           POSTINC1 equ 0FE6h ;# 
  1065  0000                     # 8345 "C:\Program Files (x86)\Microchip\xc8\v2.00\pic\include\pic18f4550.h"
  1066                           INDF1 equ 0FE7h ;# 
  1067  0000                     # 8352 "C:\Program Files (x86)\Microchip\xc8\v2.00\pic\include\pic18f4550.h"
  1068                           WREG equ 0FE8h ;# 
  1069  0000                     # 8359 "C:\Program Files (x86)\Microchip\xc8\v2.00\pic\include\pic18f4550.h"
  1070                           FSR0 equ 0FE9h ;# 
  1071  0000                     # 8366 "C:\Program Files (x86)\Microchip\xc8\v2.00\pic\include\pic18f4550.h"
  1072                           FSR0L equ 0FE9h ;# 
  1073  0000                     # 8373 "C:\Program Files (x86)\Microchip\xc8\v2.00\pic\include\pic18f4550.h"
  1074                           FSR0H equ 0FEAh ;# 
  1075  0000                     # 8380 "C:\Program Files (x86)\Microchip\xc8\v2.00\pic\include\pic18f4550.h"
  1076                           PLUSW0 equ 0FEBh ;# 
  1077  0000                     # 8387 "C:\Program Files (x86)\Microchip\xc8\v2.00\pic\include\pic18f4550.h"
  1078                           PREINC0 equ 0FECh ;# 
  1079  0000                     # 8394 "C:\Program Files (x86)\Microchip\xc8\v2.00\pic\include\pic18f4550.h"
  1080                           POSTDEC0 equ 0FEDh ;# 
  1081  0000                     # 8401 "C:\Program Files (x86)\Microchip\xc8\v2.00\pic\include\pic18f4550.h"
  1082                           POSTINC0 equ 0FEEh ;# 
  1083  0000                     # 8408 "C:\Program Files (x86)\Microchip\xc8\v2.00\pic\include\pic18f4550.h"
  1084                           INDF0 equ 0FEFh ;# 
  1085  0000                     # 8415 "C:\Program Files (x86)\Microchip\xc8\v2.00\pic\include\pic18f4550.h"
  1086                           INTCON3 equ 0FF0h ;# 
  1087  0000                     # 8507 "C:\Program Files (x86)\Microchip\xc8\v2.00\pic\include\pic18f4550.h"
  1088                           INTCON2 equ 0FF1h ;# 
  1089  0000                     # 8584 "C:\Program Files (x86)\Microchip\xc8\v2.00\pic\include\pic18f4550.h"
  1090                           INTCON equ 0FF2h ;# 
  1091  0000                     # 8701 "C:\Program Files (x86)\Microchip\xc8\v2.00\pic\include\pic18f4550.h"
  1092                           PROD equ 0FF3h ;# 
  1093  0000                     # 8708 "C:\Program Files (x86)\Microchip\xc8\v2.00\pic\include\pic18f4550.h"
  1094                           PRODL equ 0FF3h ;# 
  1095  0000                     # 8715 "C:\Program Files (x86)\Microchip\xc8\v2.00\pic\include\pic18f4550.h"
  1096                           PRODH equ 0FF4h ;# 
  1097  0000                     # 8722 "C:\Program Files (x86)\Microchip\xc8\v2.00\pic\include\pic18f4550.h"
  1098                           TABLAT equ 0FF5h ;# 
  1099  0000                     # 8731 "C:\Program Files (x86)\Microchip\xc8\v2.00\pic\include\pic18f4550.h"
  1100                           TBLPTR equ 0FF6h ;# 
  1101  0000                     # 8738 "C:\Program Files (x86)\Microchip\xc8\v2.00\pic\include\pic18f4550.h"
  1102                           TBLPTRL equ 0FF6h ;# 
  1103  0000                     # 8745 "C:\Program Files (x86)\Microchip\xc8\v2.00\pic\include\pic18f4550.h"
  1104                           TBLPTRH equ 0FF7h ;# 
  1105  0000                     # 8752 "C:\Program Files (x86)\Microchip\xc8\v2.00\pic\include\pic18f4550.h"
  1106                           TBLPTRU equ 0FF8h ;# 
  1107  0000                     # 8761 "C:\Program Files (x86)\Microchip\xc8\v2.00\pic\include\pic18f4550.h"
  1108                           PCLAT equ 0FF9h ;# 
  1109  0000                     # 8768 "C:\Program Files (x86)\Microchip\xc8\v2.00\pic\include\pic18f4550.h"
  1110                           PC equ 0FF9h ;# 
  1111  0000                     # 8775 "C:\Program Files (x86)\Microchip\xc8\v2.00\pic\include\pic18f4550.h"
  1112                           PCL equ 0FF9h ;# 
  1113  0000                     # 8782 "C:\Program Files (x86)\Microchip\xc8\v2.00\pic\include\pic18f4550.h"
  1114                           PCLATH equ 0FFAh ;# 
  1115  0000                     # 8789 "C:\Program Files (x86)\Microchip\xc8\v2.00\pic\include\pic18f4550.h"
  1116                           PCLATU equ 0FFBh ;# 
  1117  0000                     # 8796 "C:\Program Files (x86)\Microchip\xc8\v2.00\pic\include\pic18f4550.h"
  1118                           STKPTR equ 0FFCh ;# 
  1119  0000                     # 8872 "C:\Program Files (x86)\Microchip\xc8\v2.00\pic\include\pic18f4550.h"
  1120                           TOS equ 0FFDh ;# 
  1121  0000                     # 8879 "C:\Program Files (x86)\Microchip\xc8\v2.00\pic\include\pic18f4550.h"
  1122                           TOSL equ 0FFDh ;# 
  1123  0000                     # 8886 "C:\Program Files (x86)\Microchip\xc8\v2.00\pic\include\pic18f4550.h"
  1124                           TOSH equ 0FFEh ;# 
  1125  0000                     # 8893 "C:\Program Files (x86)\Microchip\xc8\v2.00\pic\include\pic18f4550.h"
  1126                           TOSU equ 0FFFh ;# 
  1127  0000                     	FNCALL	_main,_configuracionInicial
  1128                           	FNCALL	_main,_loop
  1129                           	FNCALL	_main,_setup
  1130                           	FNCALL	_setup,_SerialBegin
  1131                           	FNCALL	_setup,_pinMode
  1132                           	FNCALL	_SerialBegin,___aldiv
  1133                           	FNCALL	_loop,_SerialAvailable
  1134                           	FNCALL	_loop,_SerialRead
  1135                           	FNCALL	_loop,_SerialWrite
  1136                           	FNCALL	_loop,_analogRead
  1137                           	FNCALL	_loop,_analogWrite
  1138                           	FNCALL	_loop,_cocienteEntero
  1139                           	FNCALL	_loop,_delay
  1140                           	FNCALL	_loop,_residuo
  1141                           	FNCALL	_analogWrite,_PWM_Max_Duty
  1142                           	FNCALL	_analogWrite,___fldiv
  1143                           	FNCALL	_analogWrite,___flmul
  1144                           	FNCALL	_analogWrite,___fltol
  1145                           	FNCALL	_analogWrite,___xxtofl
  1146                           	FNCALL	_PWM_Max_Duty,___aldiv
  1147                           	FNCALL	_configuracionInicial,_ADCConfig
  1148                           	FNCALL	_configuracionInicial,_CCPConfig
  1149                           	FNCALL	_configuracionInicial,_PORTAConfig
  1150                           	FNCALL	_configuracionInicial,_PORTBConfig
  1151                           	FNCALL	_configuracionInicial,_PORTCConfig
  1152                           	FNCALL	_configuracionInicial,_PORTDConfig
  1153                           	FNCALL	_configuracionInicial,_PORTEConfig
  1154                           	FNCALL	_configuracionInicial,_TMR0Config
  1155                           	FNCALL	_configuracionInicial,_TMR1Config
  1156                           	FNCALL	_CCPConfig,_PWM1_Init
  1157                           	FNCALL	_CCPConfig,_PWM1_Start
  1158                           	FNCALL	_CCPConfig,_PWM2_Init
  1159                           	FNCALL	_CCPConfig,_PWM2_Start
  1160                           	FNCALL	_PWM2_Init,___aldiv
  1161                           	FNCALL	_PWM1_Init,___aldiv
  1162                           	FNROOT	_main
  1163                           	FNCALL	intlevel2,_TimerOverflow
  1164                           	global	intlevel2
  1165                           	FNROOT	intlevel2
  1166                           	global	_buffer
  1167                           psect	idataBANK0,class=CODE,space=0,delta=1,noexec
  1168                           global __pidataBANK0
  1169                           __pidataBANK0:
  1170  006452                     	file	"application.c"
  1171                           	line	10
  1172                           
  1173                           ;initializer for _PWMTerminal
  1174                           	db	low(04h)
  1175  006452  04                 	line	7
  1176                           
  1177                           ;initializer for _buffer
  1178                           	db	low(02h)
  1179  006453  02                 	global	_millis
  1180                           	global	_vectorIn
  1181                           	global	_PWM
  1182                           	global	_vectorOut
  1183                           	global	_ADC
  1184                           	global	_PWMLSB
  1185                           	global	_PWMMSB
  1186                           	global	_ADCLSB
  1187                           	global	_ADCMSB
  1188                           	global	_SPBRG_Register
  1189                           psect	nvBANK0,class=BANK0,space=1,noexec,lowdata
  1190                           global __pnvBANK0
  1191                           __pnvBANK0:
  1192  000080                     	global	_SPBRG_Register
  1193                           _SPBRG_Register:
  1194  000080                            ds      2
  1195  000080                     	global	_freq
  1196                           	global	_freq
  1197                           _freq:
  1198  000082                            ds      4
  1199  000082                     	global	_TMR0
  1200                           _TMR0	set	0xFD6
  1201  0000                     	global	_RCREG
  1202                           _RCREG	set	0xFAE
  1203  0000                     	global	_TXREG
  1204                           _TXREG	set	0xFAD
  1205  0000                     	global	_PR2
  1206                           _PR2	set	0xFCB
  1207  0000                     	global	_PORTEbits
  1208                           _PORTEbits	set	0xF84
  1209  0000                     	global	_TRISEbits
  1210                           _TRISEbits	set	0xF96
  1211  0000                     	global	_TRISD
  1212                           _TRISD	set	0xF95
  1213  0000                     	global	_TRISC
  1214                           _TRISC	set	0xF94
  1215  0000                     	global	_TRISB
  1216                           _TRISB	set	0xF93
  1217  0000                     	global	_TRISA
  1218                           _TRISA	set	0xF92
  1219  0000                     	global	_TMR1H
  1220                           _TMR1H	set	0xFCF
  1221  0000                     	global	_TMR1L
  1222                           _TMR1L	set	0xFCE
  1223  0000                     	global	_T1CONbits
  1224                           _T1CONbits	set	0xFCD
  1225  0000                     	global	_T1CON
  1226                           _T1CON	set	0xFCD
  1227  0000                     	global	_TMR0H
  1228                           _TMR0H	set	0xFD7
  1229  0000                     	global	_TMR0L
  1230                           _TMR0L	set	0xFD6
  1231  0000                     	global	_INTCONbits
  1232                           _INTCONbits	set	0xFF2
  1233  0000                     	global	_CCPR2L
  1234                           _CCPR2L	set	0xFBB
  1235  0000                     	global	_CCP2CONbits
  1236                           _CCP2CONbits	set	0xFBA
  1237  0000                     	global	_CCPR1L
  1238                           _CCPR1L	set	0xFBE
  1239  0000                     	global	_CCP1CONbits
  1240                           _CCP1CONbits	set	0xFBD
  1241  0000                     	global	_ADCON2
  1242                           _ADCON2	set	0xFC0
  1243  0000                     	global	_ADCON1
  1244                           _ADCON1	set	0xFC1
  1245  0000                     	global	_ADRESL
  1246                           _ADRESL	set	0xFC3
  1247  0000                     	global	_ADRESH
  1248                           _ADRESH	set	0xFC4
  1249  0000                     	global	_ADCON0bits
  1250                           _ADCON0bits	set	0xFC2
  1251  0000                     	global	_ADCON0
  1252                           _ADCON0	set	0xFC2
  1253  0000                     	global	_PORTBbits
  1254                           _PORTBbits	set	0xF81
  1255  0000                     	global	_PORTDbits
  1256                           _PORTDbits	set	0xF83
  1257  0000                     	global	_PORTCbits
  1258                           _PORTCbits	set	0xF82
  1259  0000                     	global	_PORTAbits
  1260                           _PORTAbits	set	0xF80
  1261  0000                     	global	_LATBbits
  1262                           _LATBbits	set	0xF8A
  1263  0000                     	global	_LATDbits
  1264                           _LATDbits	set	0xF8C
  1265  0000                     	global	_LATCbits
  1266                           _LATCbits	set	0xF8B
  1267  0000                     	global	_LATAbits
  1268                           _LATAbits	set	0xF89
  1269  0000                     	global	_TRISBbits
  1270                           _TRISBbits	set	0xF93
  1271  0000                     	global	_TRISDbits
  1272                           _TRISDbits	set	0xF95
  1273  0000                     	global	_TRISCbits
  1274                           _TRISCbits	set	0xF94
  1275  0000                     	global	_TRISAbits
  1276                           _TRISAbits	set	0xF92
  1277  0000                     	global	_SPBRG
  1278                           _SPBRG	set	0xFAF
  1279  0000                     	global	_RCIF
  1280                           _RCIF	set	0x7CF5
  1281  0000                     	global	_RCIDL
  1282                           _RCIDL	set	0x7DC6
  1283  0000                     	global	_OERR
  1284                           _OERR	set	0x7D59
  1285  0000                     	global	_FERR
  1286                           _FERR	set	0x7D5A
  1287  0000                     	global	_TRMT
  1288                           _TRMT	set	0x7D61
  1289  0000                     	global	_TXEN
  1290                           _TXEN	set	0x7D65
  1291  0000                     	global	_CREN
  1292                           _CREN	set	0x7D5C
  1293  0000                     	global	_TRISC7
  1294                           _TRISC7	set	0x7CA7
  1295  0000                     	global	_TRISC6
  1296                           _TRISC6	set	0x7CA6
  1297  0000                     	global	_SPEN
  1298                           _SPEN	set	0x7D5F
  1299  0000                     	global	_SYNC
  1300                           _SYNC	set	0x7D64
  1301  0000                     	global	_BRGH
  1302                           _BRGH	set	0x7D62
  1303  0000                     	global	_CCP2M2
  1304                           _CCP2M2	set	0x7DD2
  1305  0000                     	global	_CCP2M3
  1306                           _CCP2M3	set	0x7DD3
  1307  0000                     	global	_TMR2ON
  1308                           _TMR2ON	set	0x7E52
  1309  0000                     	global	_T2CKPS1
  1310                           _T2CKPS1	set	0x7E51
  1311  0000                     	global	_T2CKPS0
  1312                           _T2CKPS0	set	0x7E50
  1313  0000                     	global	_CCP1M2
  1314                           _CCP1M2	set	0x7DEA
  1315  0000                     	global	_CCP1M3
  1316                           _CCP1M3	set	0x7DEB
  1317  0000                     ; #config settings
  1318                           global __CFG_PLLDIV$5
  1319                           __CFG_PLLDIV$5 equ 0x0
  1320  0000                     global __CFG_CPUDIV$OSC3_PLL4
  1321                           __CFG_CPUDIV$OSC3_PLL4 equ 0x0
  1322  0000                     global __CFG_USBDIV$1
  1323                           __CFG_USBDIV$1 equ 0x0
  1324  0000                     global __CFG_FOSC$HSPLL_HS
  1325                           __CFG_FOSC$HSPLL_HS equ 0x0
  1326  0000                     global __CFG_FCMEN$OFF
  1327                           __CFG_FCMEN$OFF equ 0x0
  1328  0000                     global __CFG_IESO$OFF
  1329                           __CFG_IESO$OFF equ 0x0
  1330  0000                     global __CFG_PWRT$OFF
  1331                           __CFG_PWRT$OFF equ 0x0
  1332  0000                     global __CFG_BOR$OFF
  1333                           __CFG_BOR$OFF equ 0x0
  1334  0000                     global __CFG_BORV$3
  1335                           __CFG_BORV$3 equ 0x0
  1336  0000                     global __CFG_VREGEN$OFF
  1337                           __CFG_VREGEN$OFF equ 0x0
  1338  0000                     global __CFG_WDT$OFF
  1339                           __CFG_WDT$OFF equ 0x0
  1340  0000                     global __CFG_WDTPS$32768
  1341                           __CFG_WDTPS$32768 equ 0x0
  1342  0000                     global __CFG_CCP2MX$ON
  1343                           __CFG_CCP2MX$ON equ 0x0
  1344  0000                     global __CFG_PBADEN$OFF
  1345                           __CFG_PBADEN$OFF equ 0x0
  1346  0000                     global __CFG_LPT1OSC$OFF
  1347                           __CFG_LPT1OSC$OFF equ 0x0
  1348  0000                     global __CFG_MCLRE$ON
  1349                           __CFG_MCLRE$ON equ 0x0
  1350  0000                     global __CFG_STVREN$ON
  1351                           __CFG_STVREN$ON equ 0x0
  1352  0000                     global __CFG_LVP$OFF
  1353                           __CFG_LVP$OFF equ 0x0
  1354  0000                     global __CFG_ICPRT$OFF
  1355                           __CFG_ICPRT$OFF equ 0x0
  1356  0000                     global __CFG_XINST$OFF
  1357                           __CFG_XINST$OFF equ 0x0
  1358  0000                     global __CFG_CP0$OFF
  1359                           __CFG_CP0$OFF equ 0x0
  1360  0000                     global __CFG_CP1$OFF
  1361                           __CFG_CP1$OFF equ 0x0
  1362  0000                     global __CFG_CP2$OFF
  1363                           __CFG_CP2$OFF equ 0x0
  1364  0000                     global __CFG_CP3$OFF
  1365                           __CFG_CP3$OFF equ 0x0
  1366  0000                     global __CFG_CPB$OFF
  1367                           __CFG_CPB$OFF equ 0x0
  1368  0000                     global __CFG_CPD$OFF
  1369                           __CFG_CPD$OFF equ 0x0
  1370  0000                     global __CFG_WRT0$OFF
  1371                           __CFG_WRT0$OFF equ 0x0
  1372  0000                     global __CFG_WRT1$OFF
  1373                           __CFG_WRT1$OFF equ 0x0
  1374  0000                     global __CFG_WRT2$OFF
  1375                           __CFG_WRT2$OFF equ 0x0
  1376  0000                     global __CFG_WRT3$OFF
  1377                           __CFG_WRT3$OFF equ 0x0
  1378  0000                     global __CFG_WRTC$OFF
  1379                           __CFG_WRTC$OFF equ 0x0
  1380  0000                     global __CFG_WRTB$OFF
  1381                           __CFG_WRTB$OFF equ 0x0
  1382  0000                     global __CFG_WRTD$OFF
  1383                           __CFG_WRTD$OFF equ 0x0
  1384  0000                     global __CFG_EBTR0$OFF
  1385                           __CFG_EBTR0$OFF equ 0x0
  1386  0000                     global __CFG_EBTR1$OFF
  1387                           __CFG_EBTR1$OFF equ 0x0
  1388  0000                     global __CFG_EBTR2$OFF
  1389                           __CFG_EBTR2$OFF equ 0x0
  1390  0000                     global __CFG_EBTR3$OFF
  1391                           __CFG_EBTR3$OFF equ 0x0
  1392  0000                     global __CFG_EBTRB$OFF
  1393                           __CFG_EBTRB$OFF equ 0x0
  1394  0000                     	file	"C:\Users\CARLOS~1\AppData\Local\Temp\s9u8."
  1395                           	line	#
  1396                           psect	cinit,class=CODE,delta=1,reloc=2
  1397                           global __pcinit
  1398                           __pcinit:
  1399  0065B8                     global start_initialization
  1400                           start_initialization:
  1401  0065B8                     
  1402                           global __initialization
  1403                           __initialization:
  1404  0065B8                     psect	bssBANK0,class=BANK0,space=1,noexec,lowdata
  1405                           global __pbssBANK0
  1406                           __pbssBANK0:
  1407  000060                     	global	_millis
  1408                           _millis:
  1409  000060                            ds      4
  1410  000060                     	global	_vectorIn
  1411                           _vectorIn:
  1412  000064                            ds      3
  1413  000064                     	global	_PWM
  1414                           _PWM:
  1415  000067                            ds      2
  1416  000067                     	global	_vectorOut
  1417                           _vectorOut:
  1418  000069                            ds      2
  1419  000069                     	global	_ADC
  1420                           _ADC:
  1421  00006B                            ds      2
  1422  00006B                     	global	_PWMLSB
  1423                           _PWMLSB:
  1424  00006D                            ds      1
  1425  00006D                     	global	_PWMMSB
  1426                           _PWMMSB:
  1427  00006E                            ds      1
  1428  00006E                     	global	_ADCLSB
  1429                           _ADCLSB:
  1430  00006F                            ds      1
  1431  00006F                     	global	_ADCMSB
  1432                           _ADCMSB:
  1433  000070                            ds      1
  1434  000070                     	global	_A0
  1435                           	global	_A0
  1436                           _A0:
  1437  000071                            ds      1
  1438  000071                     	global	_Terminal
  1439                           	global	_Terminal
  1440                           _Terminal:
  1441  000072                            ds      1
  1442  000072                     	global	_Operator
  1443                           	global	_Operator
  1444                           _Operator:
  1445  000073                            ds      1
  1446  000073                     psect	dataBANK0,class=BANK0,space=1,noexec,lowdata
  1447                           global __pdataBANK0
  1448                           __pdataBANK0:
  1449  000086                     	file	"application.c"
  1450                           	line	10
  1451                           	global	_PWMTerminal
  1452                           	global	_PWMTerminal
  1453                           _PWMTerminal:
  1454  000086                            ds      1
  1455  000086                     psect	dataBANK0
  1456                           	file	"application.c"
  1457                           	line	7
  1458                           	global	_buffer
  1459                           _buffer:
  1460  000087                            ds      1
  1461  000087                     	file	"C:\Users\CARLOS~1\AppData\Local\Temp\s9u8."
  1462                           	line	#
  1463                           psect	cinit
  1464                           ; Initialize objects allocated to BANK0 (2 bytes)
  1465                           	global __pidataBANK0
  1466                           	; load TBLPTR registers with __pidataBANK0
  1467                           	movlw	low (__pidataBANK0)
  1468  0065B8  0E52               	movwf	tblptrl
  1469  0065BA  6EF6               	movlw	high(__pidataBANK0)
  1470  0065BC  0E64               	movwf	tblptrh
  1471  0065BE  6EF7               	movlw	low highword(__pidataBANK0)
  1472  0065C0  0E00               	movwf	tblptru
  1473  0065C2  6EF8               	tblrd*+ ;fetch initializer
  1474  0065C4  0009               	movff	tablat, __pdataBANK0+0		
  1475  0065C6  CFF5 F086          	tblrd*+ ;fetch initializer
  1476  0065CA  0009               	movff	tablat, __pdataBANK0+1		
  1477  0065CC  CFF5 F087          	line	#
  1478                           ; Clear objects allocated to BANK0 (20 bytes)
  1479                           	global __pbssBANK0
  1480                           lfsr	0,__pbssBANK0
  1481  0065D0  EE00  F060         movlw	20
  1482  0065D4  0E14               clear_0:
  1483  0065D6                     clrf	postinc0,c
  1484  0065D6  6AEE               decf	wreg
  1485  0065D8  06E8               bnz	clear_0
  1486  0065DA  E1FD               psect cinit,class=CODE,delta=1
  1487                           global end_of_initialization,__end_of__initialization
  1488                           
  1489                           ;End of C runtime variable initialization code
  1490                           
  1491                           end_of_initialization:
  1492  0065DC                     __end_of__initialization:
  1493  0065DC                     	bcf int$flags,0,c ;clear compiler interrupt flag (level 1)
  1494  0065DC  905F               	bcf int$flags,1,c ;clear compiler interrupt flag (level 2)
  1495  0065DE  925F               	GLOBAL	__Lmediumconst
  1496                           	movlw	low highword(__Lmediumconst)
  1497  0065E0  0E00               	movwf	tblptru
  1498  0065E2  6EF8               movlb 0
  1499  0065E4  0100               goto _main	;jump to C main() function
  1500  0065E6  EF86  F032         psect	cstackBANK0,class=BANK0,space=1,noexec
  1501                           global __pcstackBANK0
  1502                           __pcstackBANK0:
  1503  000074                     ?_analogWrite:	; 1 bytes @ 0x0
  1504  000074                     	global	analogWrite@value
  1505                           analogWrite@value:	; 2 bytes @ 0x0
  1506  000074                     	ds   2
  1507  000074                     ??_analogWrite:	; 1 bytes @ 0x2
  1508  000076                     	ds   2
  1509  000076                     	global	analogWrite@pin
  1510                           analogWrite@pin:	; 1 bytes @ 0x4
  1511  000078                     	ds   1
  1512  000078                     ??_loop:	; 1 bytes @ 0x5
  1513  000079                     	ds   3
  1514  000079                     	global	loop@i
  1515                           loop@i:	; 2 bytes @ 0x8
  1516  00007C                     	ds   2
  1517  00007C                     	global	loop@i_1229
  1518                           loop@i_1229:	; 2 bytes @ 0xA
  1519  00007E                     	ds   2
  1520  00007E                     psect	cstackCOMRAM,class=COMRAM,space=1,noexec
  1521                           global __pcstackCOMRAM
  1522                           __pcstackCOMRAM:
  1523  000001                     ?_configuracionInicial:	; 1 bytes @ 0x0
  1524  000001                     ?_setup:	; 1 bytes @ 0x0
  1525  000001                     ?_loop:	; 1 bytes @ 0x0
  1526  000001                     ?_ADCConfig:	; 1 bytes @ 0x0
  1527  000001                     ??_ADCConfig:	; 1 bytes @ 0x0
  1528  000001                     ?_CCPConfig:	; 1 bytes @ 0x0
  1529  000001                     ?_PORTAConfig:	; 1 bytes @ 0x0
  1530  000001                     ??_PORTAConfig:	; 1 bytes @ 0x0
  1531  000001                     ?_PORTBConfig:	; 1 bytes @ 0x0
  1532  000001                     ??_PORTBConfig:	; 1 bytes @ 0x0
  1533  000001                     ?_PORTCConfig:	; 1 bytes @ 0x0
  1534  000001                     ??_PORTCConfig:	; 1 bytes @ 0x0
  1535  000001                     ?_PORTDConfig:	; 1 bytes @ 0x0
  1536  000001                     ??_PORTDConfig:	; 1 bytes @ 0x0
  1537  000001                     ?_PORTEConfig:	; 1 bytes @ 0x0
  1538  000001                     ??_PORTEConfig:	; 1 bytes @ 0x0
  1539  000001                     ?_TMR0Config:	; 1 bytes @ 0x0
  1540  000001                     ??_TMR0Config:	; 1 bytes @ 0x0
  1541  000001                     ?_TMR1Config:	; 1 bytes @ 0x0
  1542  000001                     ??_TMR1Config:	; 1 bytes @ 0x0
  1543  000001                     ?_PWM1_Start:	; 1 bytes @ 0x0
  1544  000001                     ??_PWM1_Start:	; 1 bytes @ 0x0
  1545  000001                     ?_PWM2_Start:	; 1 bytes @ 0x0
  1546  000001                     ??_PWM2_Start:	; 1 bytes @ 0x0
  1547  000001                     ?_cocienteEntero:	; 1 bytes @ 0x0
  1548  000001                     ?_residuo:	; 1 bytes @ 0x0
  1549  000001                     ?_delay:	; 1 bytes @ 0x0
  1550  000001                     ?_pinMode:	; 1 bytes @ 0x0
  1551  000001                     ?_TimerOverflow:	; 1 bytes @ 0x0
  1552  000001                     ??_TimerOverflow:	; 1 bytes @ 0x0
  1553  000001                     ?_SerialWrite:	; 1 bytes @ 0x0
  1554  000001                     ??_SerialWrite:	; 1 bytes @ 0x0
  1555  000001                     ?_SerialAvailable:	; 1 bytes @ 0x0
  1556  000001                     ??_SerialAvailable:	; 1 bytes @ 0x0
  1557  000001                     ?_SerialRead:	; 1 bytes @ 0x0
  1558  000001                     ??_SerialRead:	; 1 bytes @ 0x0
  1559  000001                     ?_main:	; 2 bytes @ 0x0
  1560  000001                     	global	?_analogRead
  1561                           ?_analogRead:	; 2 bytes @ 0x0
  1562  000001                     	global	?___aldiv
  1563                           ?___aldiv:	; 4 bytes @ 0x0
  1564  000001                     	global	pinMode@mode
  1565                           pinMode@mode:	; 1 bytes @ 0x0
  1566  000001                     	global	SerialWrite@dataWrite
  1567                           SerialWrite@dataWrite:	; 1 bytes @ 0x0
  1568  000001                     	global	delay@milis
  1569                           delay@milis:	; 2 bytes @ 0x0
  1570  000001                     	global	residuo@numerator
  1571                           residuo@numerator:	; 2 bytes @ 0x0
  1572  000001                     	global	cocienteEntero@numerator
  1573                           cocienteEntero@numerator:	; 2 bytes @ 0x0
  1574  000001                     	global	___aldiv@dividend
  1575                           ___aldiv@dividend:	; 4 bytes @ 0x0
  1576  000001                     	ds   1
  1577  000001                     ??_pinMode:	; 1 bytes @ 0x1
  1578  000002                     	ds   1
  1579  000002                     ??_delay:	; 1 bytes @ 0x2
  1580  000003                     ??_analogRead:	; 1 bytes @ 0x2
  1581  000003                     	global	residuo@denominator
  1582                           residuo@denominator:	; 2 bytes @ 0x2
  1583  000003                     	global	cocienteEntero@denominator
  1584                           cocienteEntero@denominator:	; 2 bytes @ 0x2
  1585  000003                     	ds   1
  1586  000003                     	global	pinMode@pin
  1587                           pinMode@pin:	; 1 bytes @ 0x3
  1588  000004                     	global	delay@j
  1589                           delay@j:	; 2 bytes @ 0x3
  1590  000004                     	ds   1
  1591  000004                     ??_cocienteEntero:	; 1 bytes @ 0x4
  1592  000005                     ??_residuo:	; 1 bytes @ 0x4
  1593  000005                     	global	analogRead@pin
  1594                           analogRead@pin:	; 1 bytes @ 0x4
  1595  000005                     	global	residuo@temp1
  1596                           residuo@temp1:	; 2 bytes @ 0x4
  1597  000005                     	global	cocienteEntero@cont
  1598                           cocienteEntero@cont:	; 2 bytes @ 0x4
  1599  000005                     	global	___aldiv@divisor
  1600                           ___aldiv@divisor:	; 4 bytes @ 0x4
  1601  000005                     	ds   1
  1602  000005                     	global	delay@i
  1603                           delay@i:	; 2 bytes @ 0x5
  1604  000006                     	ds   1
  1605  000006                     	global	cocienteEntero@temp1
  1606                           cocienteEntero@temp1:	; 2 bytes @ 0x6
  1607  000007                     	ds   2
  1608  000007                     ??___aldiv:	; 1 bytes @ 0x8
  1609  000009                     	global	___aldiv@counter
  1610                           ___aldiv@counter:	; 1 bytes @ 0x8
  1611  000009                     	ds   1
  1612  000009                     	global	___aldiv@sign
  1613                           ___aldiv@sign:	; 1 bytes @ 0x9
  1614  00000A                     	ds   1
  1615  00000A                     	global	___aldiv@quotient
  1616                           ___aldiv@quotient:	; 4 bytes @ 0xA
  1617  00000B                     	ds   4
  1618  00000B                     ?_PWM1_Init:	; 1 bytes @ 0xE
  1619  00000F                     ?_PWM2_Init:	; 1 bytes @ 0xE
  1620  00000F                     ?_SerialBegin:	; 1 bytes @ 0xE
  1621  00000F                     	global	?_PWM_Max_Duty
  1622                           ?_PWM_Max_Duty:	; 2 bytes @ 0xE
  1623  00000F                     	global	PWM1_Init@fre
  1624                           PWM1_Init@fre:	; 4 bytes @ 0xE
  1625  00000F                     	global	PWM2_Init@fre
  1626                           PWM2_Init@fre:	; 4 bytes @ 0xE
  1627  00000F                     	global	SerialBegin@baudRate
  1628                           SerialBegin@baudRate:	; 4 bytes @ 0xE
  1629  00000F                     	ds   2
  1630  00000F                     ??_PWM_Max_Duty:	; 1 bytes @ 0x10
  1631  000011                     	ds   2
  1632  000011                     ??_PWM1_Init:	; 1 bytes @ 0x12
  1633  000013                     ??_PWM2_Init:	; 1 bytes @ 0x12
  1634  000013                     ??_SerialBegin:	; 1 bytes @ 0x12
  1635  000013                     	global	_SerialBegin$1934
  1636                           _SerialBegin$1934:	; 4 bytes @ 0x12
  1637  000013                     	ds   2
  1638  000013                     	global	?___xxtofl
  1639                           ?___xxtofl:	; 4 bytes @ 0x14
  1640  000015                     	global	___xxtofl@val
  1641                           ___xxtofl@val:	; 4 bytes @ 0x14
  1642  000015                     	ds   2
  1643  000015                     ??_configuracionInicial:	; 1 bytes @ 0x16
  1644  000017                     ??_CCPConfig:	; 1 bytes @ 0x16
  1645  000017                     	global	SerialBegin@x
  1646                           SerialBegin@x:	; 4 bytes @ 0x16
  1647  000017                     	ds   2
  1648  000017                     ??___xxtofl:	; 1 bytes @ 0x18
  1649  000019                     	ds   2
  1650  000019                     ??_setup:	; 1 bytes @ 0x1A
  1651  00001B                     	ds   2
  1652  00001B                     	global	___xxtofl@sign
  1653                           ___xxtofl@sign:	; 1 bytes @ 0x1C
  1654  00001D                     	ds   1
  1655  00001D                     	global	___xxtofl@exp
  1656                           ___xxtofl@exp:	; 1 bytes @ 0x1D
  1657  00001E                     	ds   1
  1658  00001E                     	global	___xxtofl@arg
  1659                           ___xxtofl@arg:	; 4 bytes @ 0x1E
  1660  00001F                     	ds   4
  1661  00001F                     	global	?___fldiv
  1662                           ?___fldiv:	; 4 bytes @ 0x22
  1663  000023                     	global	___fldiv@b
  1664                           ___fldiv@b:	; 4 bytes @ 0x22
  1665  000023                     	ds   4
  1666  000023                     	global	___fldiv@a
  1667                           ___fldiv@a:	; 4 bytes @ 0x26
  1668  000027                     	ds   4
  1669  000027                     ??___fldiv:	; 1 bytes @ 0x2A
  1670  00002B                     	ds   4
  1671  00002B                     	global	___fldiv@rem
  1672                           ___fldiv@rem:	; 4 bytes @ 0x2E
  1673  00002F                     	ds   4
  1674  00002F                     	global	___fldiv@sign
  1675                           ___fldiv@sign:	; 1 bytes @ 0x32
  1676  000033                     	ds   1
  1677  000033                     	global	___fldiv@new_exp
  1678                           ___fldiv@new_exp:	; 2 bytes @ 0x33
  1679  000034                     	ds   2
  1680  000034                     	global	___fldiv@grs
  1681                           ___fldiv@grs:	; 4 bytes @ 0x35
  1682  000036                     	ds   4
  1683  000036                     	global	___fldiv@bexp
  1684                           ___fldiv@bexp:	; 1 bytes @ 0x39
  1685  00003A                     	ds   1
  1686  00003A                     	global	___fldiv@aexp
  1687                           ___fldiv@aexp:	; 1 bytes @ 0x3A
  1688  00003B                     	ds   1
  1689  00003B                     	global	?___flmul
  1690                           ?___flmul:	; 4 bytes @ 0x3B
  1691  00003C                     	global	___flmul@b
  1692                           ___flmul@b:	; 4 bytes @ 0x3B
  1693  00003C                     	ds   4
  1694  00003C                     	global	___flmul@a
  1695                           ___flmul@a:	; 4 bytes @ 0x3F
  1696  000040                     	ds   4
  1697  000040                     ??___flmul:	; 1 bytes @ 0x43
  1698  000044                     	ds   4
  1699  000044                     	global	___flmul@sign
  1700                           ___flmul@sign:	; 1 bytes @ 0x47
  1701  000048                     	ds   1
  1702  000048                     	global	___flmul@grs
  1703                           ___flmul@grs:	; 4 bytes @ 0x48
  1704  000049                     	ds   4
  1705  000049                     	global	___flmul@aexp
  1706                           ___flmul@aexp:	; 1 bytes @ 0x4C
  1707  00004D                     	ds   1
  1708  00004D                     	global	___flmul@bexp
  1709                           ___flmul@bexp:	; 1 bytes @ 0x4D
  1710  00004E                     	ds   1
  1711  00004E                     	global	___flmul@prod
  1712                           ___flmul@prod:	; 4 bytes @ 0x4E
  1713  00004F                     	ds   4
  1714  00004F                     	global	___flmul@temp
  1715                           ___flmul@temp:	; 2 bytes @ 0x52
  1716  000053                     	ds   2
  1717  000053                     	global	?___fltol
  1718                           ?___fltol:	; 4 bytes @ 0x54
  1719  000055                     	global	___fltol@f1
  1720                           ___fltol@f1:	; 4 bytes @ 0x54
  1721  000055                     	ds   4
  1722  000055                     ??___fltol:	; 1 bytes @ 0x58
  1723  000059                     	ds   4
  1724  000059                     	global	___fltol@sign1
  1725                           ___fltol@sign1:	; 1 bytes @ 0x5C
  1726  00005D                     	ds   1
  1727  00005D                     	global	___fltol@exp1
  1728                           ___fltol@exp1:	; 1 bytes @ 0x5D
  1729  00005E                     	ds   1
  1730  00005E                     ??_main:	; 1 bytes @ 0x5E
  1731  00005F                     ;!
  1732                           ;!Data Sizes:
  1733                           ;!    Strings     0
  1734                           ;!    Constant    0
  1735                           ;!    Data        2
  1736                           ;!    BSS         20
  1737                           ;!    Persistent  6
  1738                           ;!    Stack       0
  1739                           ;!
  1740                           ;!Auto Spaces:
  1741                           ;!    Space          Size  Autos    Used
  1742                           ;!    COMRAM           94     94      94
  1743                           ;!    BANK0           160     12      40
  1744                           ;!    BANK1           256      0       0
  1745                           ;!    BANK2           256      0       0
  1746                           ;!    BANK3           256      0       0
  1747                           ;!    BANK4           256      0       0
  1748                           ;!    BANK5           256      0       0
  1749                           ;!    BANK6           256      0       0
  1750                           ;!    BANK7           256      0       0
  1751                           
  1752                           ;!
  1753                           ;!Pointer List with Targets:
  1754                           ;!
  1755                           ;!    None.
  1756                           
  1757                           
  1758                           ;!
  1759                           ;!Critical Paths under _main in COMRAM
  1760                           ;!
  1761                           ;!    _setup->_SerialBegin
  1762                           ;!    _SerialBegin->___aldiv
  1763                           ;!    _analogWrite->___fltol
  1764                           ;!    ___xxtofl->_PWM_Max_Duty
  1765                           ;!    ___fltol->___flmul
  1766                           ;!    ___flmul->___fldiv
  1767                           ;!    ___fldiv->___xxtofl
  1768                           ;!    _PWM_Max_Duty->___aldiv
  1769                           ;!    _CCPConfig->_PWM1_Init
  1770                           ;!    _CCPConfig->_PWM2_Init
  1771                           ;!    _PWM2_Init->___aldiv
  1772                           ;!    _PWM1_Init->___aldiv
  1773                           ;!
  1774                           ;!Critical Paths under _TimerOverflow in COMRAM
  1775                           ;!
  1776                           ;!    None.
  1777                           ;!
  1778                           ;!Critical Paths under _main in BANK0
  1779                           ;!
  1780                           ;!    _main->_loop
  1781                           ;!    _loop->_analogWrite
  1782                           ;!
  1783                           ;!Critical Paths under _TimerOverflow in BANK0
  1784                           ;!
  1785                           ;!    None.
  1786                           ;!
  1787                           ;!Critical Paths under _main in BANK1
  1788                           ;!
  1789                           ;!    None.
  1790                           ;!
  1791                           ;!Critical Paths under _TimerOverflow in BANK1
  1792                           ;!
  1793                           ;!    None.
  1794                           ;!
  1795                           ;!Critical Paths under _main in BANK2
  1796                           ;!
  1797                           ;!    None.
  1798                           ;!
  1799                           ;!Critical Paths under _TimerOverflow in BANK2
  1800                           ;!
  1801                           ;!    None.
  1802                           ;!
  1803                           ;!Critical Paths under _main in BANK3
  1804                           ;!
  1805                           ;!    None.
  1806                           ;!
  1807                           ;!Critical Paths under _TimerOverflow in BANK3
  1808                           ;!
  1809                           ;!    None.
  1810                           ;!
  1811                           ;!Critical Paths under _main in BANK4
  1812                           ;!
  1813                           ;!    None.
  1814                           ;!
  1815                           ;!Critical Paths under _TimerOverflow in BANK4
  1816                           ;!
  1817                           ;!    None.
  1818                           ;!
  1819                           ;!Critical Paths under _main in BANK5
  1820                           ;!
  1821                           ;!    None.
  1822                           ;!
  1823                           ;!Critical Paths under _TimerOverflow in BANK5
  1824                           ;!
  1825                           ;!    None.
  1826                           ;!
  1827                           ;!Critical Paths under _main in BANK6
  1828                           ;!
  1829                           ;!    None.
  1830                           ;!
  1831                           ;!Critical Paths under _TimerOverflow in BANK6
  1832                           ;!
  1833                           ;!    None.
  1834                           ;!
  1835                           ;!Critical Paths under _main in BANK7
  1836                           ;!
  1837                           ;!    None.
  1838                           ;!
  1839                           ;!Critical Paths under _TimerOverflow in BANK7
  1840                           ;!
  1841                           ;!    None.
  1842                           
  1843 ;;
  1844 ;;Main: autosize = 0, tempsize = 0, incstack = 0, save=0
  1845 ;;
  1846                           
  1847                           ;!
  1848                           ;!Call Graph Tables:
  1849                           ;!
  1850                           ;! ---------------------------------------------------------------------------------
  1851                           ;! (Depth) Function   	        Calls       Base Space   Used Autos Params    Refs
  1852                           ;! ---------------------------------------------------------------------------------
  1853                           ;! (0) _main                                                 0     0      0   13706
  1854                           ;!               _configuracionInicial
  1855                           ;!                               _loop
  1856                           ;!                              _setup
  1857                           ;! ---------------------------------------------------------------------------------
  1858                           ;! (1) _setup                                                0     0      0    2278
  1859                           ;!                        _SerialBegin
  1860                           ;!                            _pinMode
  1861                           ;! ---------------------------------------------------------------------------------
  1862                           ;! (2) _pinMode                                              4     3      1     680
  1863                           ;!                                              0 COMRAM     4     3      1
  1864                           ;! ---------------------------------------------------------------------------------
  1865                           ;! (2) _SerialBegin                                         12     8      4    1598
  1866                           ;!                                             14 COMRAM    12     8      4
  1867                           ;!                            ___aldiv
  1868                           ;! ---------------------------------------------------------------------------------
  1869                           ;! (1) _loop                                                 7     7      0    8460
  1870                           ;!                                              5 BANK0      7     7      0
  1871                           ;!                    _SerialAvailable
  1872                           ;!                         _SerialRead
  1873                           ;!                        _SerialWrite
  1874                           ;!                         _analogRead
  1875                           ;!                        _analogWrite
  1876                           ;!                     _cocienteEntero
  1877                           ;!                              _delay
  1878                           ;!                            _residuo
  1879                           ;! ---------------------------------------------------------------------------------
  1880                           ;! (2) _residuo                                              6     2      4     264
  1881                           ;!                                              0 COMRAM     6     2      4
  1882                           ;! ---------------------------------------------------------------------------------
  1883                           ;! (2) _delay                                                7     5      2     288
  1884                           ;!                                              0 COMRAM     7     5      2
  1885                           ;! ---------------------------------------------------------------------------------
  1886                           ;! (2) _cocienteEntero                                       8     4      4     266
  1887                           ;!                                              0 COMRAM     8     4      4
  1888                           ;! ---------------------------------------------------------------------------------
  1889                           ;! (2) _analogWrite                                          5     3      2    7506
  1890                           ;!                                              0 BANK0      5     3      2
  1891                           ;!                       _PWM_Max_Duty
  1892                           ;!                            ___fldiv
  1893                           ;!                            ___flmul
  1894                           ;!                            ___fltol
  1895                           ;!                           ___xxtofl
  1896                           ;! ---------------------------------------------------------------------------------
  1897                           ;! (3) ___xxtofl                                            14    10      4     854
  1898                           ;!                                             20 COMRAM    14    10      4
  1899                           ;!                       _PWM_Max_Duty (ARG)
  1900                           ;! ---------------------------------------------------------------------------------
  1901                           ;! (3) ___fltol                                             10     6      4     381
  1902                           ;!                                             84 COMRAM    10     6      4
  1903                           ;!                       _PWM_Max_Duty (ARG)
  1904                           ;!                            ___fldiv (ARG)
  1905                           ;!                            ___flmul (ARG)
  1906                           ;!                           ___xxtofl (ARG)
  1907                           ;! ---------------------------------------------------------------------------------
  1908                           ;! (3) ___flmul                                             25    17      8    2656
  1909                           ;!                                             59 COMRAM    25    17      8
  1910                           ;!                       _PWM_Max_Duty (ARG)
  1911                           ;!                            ___fldiv (ARG)
  1912                           ;!                           ___xxtofl (ARG)
  1913                           ;! ---------------------------------------------------------------------------------
  1914                           ;! (3) ___fldiv                                             25    17      8    1855
  1915                           ;!                                             34 COMRAM    25    17      8
  1916                           ;!                           ___xxtofl (ARG)
  1917                           ;! ---------------------------------------------------------------------------------
  1918                           ;! (3) _PWM_Max_Duty                                         6     4      2    1364
  1919                           ;!                                             14 COMRAM     6     4      2
  1920                           ;!                            ___aldiv
  1921                           ;! ---------------------------------------------------------------------------------
  1922                           ;! (2) _analogRead                                           5     3      2      22
  1923                           ;!                                              0 COMRAM     5     3      2
  1924                           ;! ---------------------------------------------------------------------------------
  1925                           ;! (2) _SerialWrite                                          1     1      0      22
  1926                           ;!                                              0 COMRAM     1     1      0
  1927                           ;! ---------------------------------------------------------------------------------
  1928                           ;! (2) _SerialRead                                           0     0      0       0
  1929                           ;! ---------------------------------------------------------------------------------
  1930                           ;! (2) _SerialAvailable                                      0     0      0       0
  1931                           ;! ---------------------------------------------------------------------------------
  1932                           ;! (1) _configuracionInicial                                 0     0      0    2968
  1933                           ;!                          _ADCConfig
  1934                           ;!                          _CCPConfig
  1935                           ;!                        _PORTAConfig
  1936                           ;!                        _PORTBConfig
  1937                           ;!                        _PORTCConfig
  1938                           ;!                        _PORTDConfig
  1939                           ;!                        _PORTEConfig
  1940                           ;!                         _TMR0Config
  1941                           ;!                         _TMR1Config
  1942                           ;! ---------------------------------------------------------------------------------
  1943                           ;! (2) _TMR1Config                                           0     0      0       0
  1944                           ;! ---------------------------------------------------------------------------------
  1945                           ;! (2) _TMR0Config                                           0     0      0       0
  1946                           ;! ---------------------------------------------------------------------------------
  1947                           ;! (2) _PORTEConfig                                          0     0      0       0
  1948                           ;! ---------------------------------------------------------------------------------
  1949                           ;! (2) _PORTDConfig                                          0     0      0       0
  1950                           ;! ---------------------------------------------------------------------------------
  1951                           ;! (2) _PORTCConfig                                          0     0      0       0
  1952                           ;! ---------------------------------------------------------------------------------
  1953                           ;! (2) _PORTBConfig                                          0     0      0       0
  1954                           ;! ---------------------------------------------------------------------------------
  1955                           ;! (2) _PORTAConfig                                          0     0      0       0
  1956                           ;! ---------------------------------------------------------------------------------
  1957                           ;! (2) _CCPConfig                                            0     0      0    2968
  1958                           ;!                          _PWM1_Init
  1959                           ;!                         _PWM1_Start
  1960                           ;!                          _PWM2_Init
  1961                           ;!                         _PWM2_Start
  1962                           ;! ---------------------------------------------------------------------------------
  1963                           ;! (3) _PWM2_Start                                           0     0      0       0
  1964                           ;! ---------------------------------------------------------------------------------
  1965                           ;! (3) _PWM2_Init                                            8     4      4    1484
  1966                           ;!                                             14 COMRAM     8     4      4
  1967                           ;!                            ___aldiv
  1968                           ;! ---------------------------------------------------------------------------------
  1969                           ;! (3) _PWM1_Start                                           0     0      0       0
  1970                           ;! ---------------------------------------------------------------------------------
  1971                           ;! (3) _PWM1_Init                                            8     4      4    1484
  1972                           ;!                                             14 COMRAM     8     4      4
  1973                           ;!                            ___aldiv
  1974                           ;! ---------------------------------------------------------------------------------
  1975                           ;! (3) ___aldiv                                             14     6      8    1364
  1976                           ;!                                              0 COMRAM    14     6      8
  1977                           ;! ---------------------------------------------------------------------------------
  1978                           ;! (2) _ADCConfig                                            0     0      0       0
  1979                           ;! ---------------------------------------------------------------------------------
  1980                           ;! Estimated maximum stack depth 3
  1981                           ;! ---------------------------------------------------------------------------------
  1982                           ;! (Depth) Function   	        Calls       Base Space   Used Autos Params    Refs
  1983                           ;! ---------------------------------------------------------------------------------
  1984                           ;! (5) _TimerOverflow                                        0     0      0       0
  1985                           ;! ---------------------------------------------------------------------------------
  1986                           ;! Estimated maximum stack depth 5
  1987                           ;! ---------------------------------------------------------------------------------
  1988                           ;!
  1989                           ;! Call Graph Graphs:
  1990                           ;!
  1991                           ;! _main (ROOT)
  1992                           ;!   _configuracionInicial
  1993                           ;!     _ADCConfig
  1994                           ;!     _CCPConfig
  1995                           ;!       _PWM1_Init
  1996                           ;!         ___aldiv
  1997                           ;!       _PWM1_Start
  1998                           ;!       _PWM2_Init
  1999                           ;!         ___aldiv
  2000                           ;!       _PWM2_Start
  2001                           ;!     _PORTAConfig
  2002                           ;!     _PORTBConfig
  2003                           ;!     _PORTCConfig
  2004                           ;!     _PORTDConfig
  2005                           ;!     _PORTEConfig
  2006                           ;!     _TMR0Config
  2007                           ;!     _TMR1Config
  2008                           ;!   _loop
  2009                           ;!     _SerialAvailable
  2010                           ;!     _SerialRead
  2011                           ;!     _SerialWrite
  2012                           ;!     _analogRead
  2013                           ;!     _analogWrite
  2014                           ;!       _PWM_Max_Duty
  2015                           ;!         ___aldiv
  2016                           ;!       ___fldiv
  2017                           ;!         ___xxtofl (ARG)
  2018                           ;!           _PWM_Max_Duty (ARG)
  2019                           ;!             ___aldiv
  2020                           ;!       ___flmul
  2021                           ;!         _PWM_Max_Duty (ARG)
  2022                           ;!           ___aldiv
  2023                           ;!         ___fldiv (ARG)
  2024                           ;!           ___xxtofl (ARG)
  2025                           ;!             _PWM_Max_Duty (ARG)
  2026                           ;!               ___aldiv
  2027                           ;!         ___xxtofl (ARG)
  2028                           ;!           _PWM_Max_Duty (ARG)
  2029                           ;!             ___aldiv
  2030                           ;!       ___fltol
  2031                           ;!         _PWM_Max_Duty (ARG)
  2032                           ;!           ___aldiv
  2033                           ;!         ___fldiv (ARG)
  2034                           ;!           ___xxtofl (ARG)
  2035                           ;!             _PWM_Max_Duty (ARG)
  2036                           ;!               ___aldiv
  2037                           ;!         ___flmul (ARG)
  2038                           ;!           _PWM_Max_Duty (ARG)
  2039                           ;!             ___aldiv
  2040                           ;!           ___fldiv (ARG)
  2041                           ;!             ___xxtofl (ARG)
  2042                           ;!               _PWM_Max_Duty (ARG)
  2043                           ;!                 ___aldiv
  2044                           ;!           ___xxtofl (ARG)
  2045                           ;!             _PWM_Max_Duty (ARG)
  2046                           ;!               ___aldiv
  2047                           ;!         ___xxtofl (ARG)
  2048                           ;!           _PWM_Max_Duty (ARG)
  2049                           ;!             ___aldiv
  2050                           ;!       ___xxtofl
  2051                           ;!         _PWM_Max_Duty (ARG)
  2052                           ;!           ___aldiv
  2053                           ;!     _cocienteEntero
  2054                           ;!     _delay
  2055                           ;!     _residuo
  2056                           ;!   _setup
  2057                           ;!     _SerialBegin
  2058                           ;!       ___aldiv
  2059                           ;!     _pinMode
  2060                           ;!
  2061                           ;! _TimerOverflow (ROOT)
  2062                           ;!
  2063                           
  2064                           ;! Address spaces:
  2065                           
  2066                           ;!Name               Size   Autos  Total    Cost      Usage
  2067                           ;!BIGRAM             7FF      0       0      21        0.0%
  2068                           ;!EEDATA             100      0       0       0        0.0%
  2069                           ;!BITBANK7           100      0       0      18        0.0%
  2070                           ;!BANK7              100      0       0      19        0.0%
  2071                           ;!BITBANK6           100      0       0      16        0.0%
  2072                           ;!BANK6              100      0       0      17        0.0%
  2073                           ;!BITBANK5           100      0       0      14        0.0%
  2074                           ;!BANK5              100      0       0      15        0.0%
  2075                           ;!BITBANK4           100      0       0      12        0.0%
  2076                           ;!BANK4              100      0       0      13        0.0%
  2077                           ;!BITBANK3           100      0       0      10        0.0%
  2078                           ;!BANK3              100      0       0      11        0.0%
  2079                           ;!BITBANK2           100      0       0       8        0.0%
  2080                           ;!BANK2              100      0       0       9        0.0%
  2081                           ;!BITBANK1           100      0       0       6        0.0%
  2082                           ;!BANK1              100      0       0       7        0.0%
  2083                           ;!BITBANK0            A0      0       0       4        0.0%
  2084                           ;!BANK0               A0      C      28       5       25.0%
  2085                           ;!BITCOMRAM           5E      0       0       0        0.0%
  2086                           ;!COMRAM              5E     5E      5E       1      100.0%
  2087                           ;!BITSFR               0      0       0     200        0.0%
  2088                           ;!SFR                  0      0       0     200        0.0%
  2089                           ;!STACK                0      0       0       2        0.0%
  2090                           ;!NULL                 0      0       0       0        0.0%
  2091                           ;!ABS                  0      0      86      20        0.0%
  2092                           ;!DATA                 0      0      86       3        0.0%
  2093                           ;!CODE                 0      0       0       0        0.0%
  2094                           
  2095                           	global	_main
  2096                           
  2097 ;; *************** function _main *****************
  2098 ;; Defined at:
  2099 ;;		line 12 in file "main.c"
  2100 ;; Parameters:    Size  Location     Type
  2101 ;;		None
  2102 ;; Auto vars:     Size  Location     Type
  2103 ;;		None
  2104 ;; Return value:  Size  Location     Type
  2105 ;;                  2  162[None  ] int 
  2106 ;; Registers used:
  2107 ;;		wreg, fsr2l, fsr2h, status,2, status,0, prodl, prodh, cstack
  2108 ;; Tracked objects:
  2109 ;;		On entry : 0/0
  2110 ;;		On exit  : 0/0
  2111 ;;		Unchanged: 0/0
  2112 ;; Data sizes:     COMRAM   BANK0   BANK1   BANK2   BANK3   BANK4   BANK5   BANK6   BANK7
  2113 ;;      Params:         0       0       0       0       0       0       0       0       0
  2114 ;;      Locals:         0       0       0       0       0       0       0       0       0
  2115 ;;      Temps:          0       0       0       0       0       0       0       0       0
  2116 ;;      Totals:         0       0       0       0       0       0       0       0       0
  2117 ;;Total ram usage:        0 bytes
  2118 ;; Hardware stack levels required when called:    5
  2119 ;; This function calls:
  2120 ;;		_configuracionInicial
  2121 ;;		_loop
  2122 ;;		_setup
  2123 ;; This function is called by:
  2124 ;;		Startup code after reset
  2125 ;; This function uses a non-reentrant model
  2126 ;;
  2127                           psect	text0,class=CODE,space=0,reloc=2,group=0
  2128                           	file	"main.c"
  2129                           	line	12
  2130                           global __ptext0
  2131                           __ptext0:
  2132  00650C                     psect	text0
  2133                           	file	"main.c"
  2134                           	line	12
  2135                           	global	__size_of_main
  2136                           	__size_of_main	equ	__end_of_main-_main
  2137  0000                     	
  2138                           _main:
  2139  00650C                     ;incstack = 0
  2140                           	opt	stack 26
  2141                           	line	14
  2142                           	
  2143                           l2933:
  2144  00650C                     ;main.c: 14:     SPBRG_Register = SPBRG;
  2145                           	movff	(c:4015),(_SPBRG_Register)	;volatile
  2146  00650C  CFAF F080          	movlb	0	; () banked
  2147  006510  0100               	clrf	((_SPBRG_Register+1))&0ffh
  2148  006512  6B81               	line	16
  2149                           	
  2150                           l2935:; BSR set to: 0
  2151  006514                     
  2152                           ;main.c: 16:     configuracionInicial();
  2153                           	call	_configuracionInicial	;wreg free
  2154  006514  EC98  F032         	line	17
  2155                           ;main.c: 17:     setup();
  2156                           	call	_setup	;wreg free
  2157  006518  EC76  F032         	goto	l2937
  2158  00651C  EF90  F032         	line	18
  2159                           ;main.c: 18:     while(1)
  2160                           	
  2161                           l163:
  2162  006520                     	line	20
  2163                           	
  2164                           l2937:
  2165  006520                     ;main.c: 19:     {;main.c: 20:         loop();
  2166                           	call	_loop	;wreg free
  2167  006520  ECE0  F035         	goto	l2937
  2168  006524  EF90  F032         	line	21
  2169                           ;main.c: 21:     }
  2170                           	
  2171                           l164:
  2172  006528                     	goto	l2937
  2173  006528  EF90  F032         	
  2174                           l165:
  2175  00652C                     	line	23
  2176                           ;main.c: 22:     return 0;;	Return value of _main is never used
  2177                           	
  2178                           l166:
  2179  00652C                     	global	start
  2180                           	goto	start
  2181  00652C  EF07  F000         	opt stack 0
  2182                           GLOBAL	__end_of_main
  2183                           	__end_of_main:
  2184  006530                     	signat	_main,90
  2185                           	global	_setup
  2186                           
  2187 ;; *************** function _setup *****************
  2188 ;; Defined at:
  2189 ;;		line 19 in file "application.c"
  2190 ;; Parameters:    Size  Location     Type
  2191 ;;		None
  2192 ;; Auto vars:     Size  Location     Type
  2193 ;;		None
  2194 ;; Return value:  Size  Location     Type
  2195 ;;                  1    wreg      void 
  2196 ;; Registers used:
  2197 ;;		wreg, status,2, status,0, cstack
  2198 ;; Tracked objects:
  2199 ;;		On entry : 0/0
  2200 ;;		On exit  : 0/0
  2201 ;;		Unchanged: 0/0
  2202 ;; Data sizes:     COMRAM   BANK0   BANK1   BANK2   BANK3   BANK4   BANK5   BANK6   BANK7
  2203 ;;      Params:         0       0       0       0       0       0       0       0       0
  2204 ;;      Locals:         0       0       0       0       0       0       0       0       0
  2205 ;;      Temps:          0       0       0       0       0       0       0       0       0
  2206 ;;      Totals:         0       0       0       0       0       0       0       0       0
  2207 ;;Total ram usage:        0 bytes
  2208 ;; Hardware stack levels used:    1
  2209 ;; Hardware stack levels required when called:    3
  2210 ;; This function calls:
  2211 ;;		_SerialBegin
  2212 ;;		_pinMode
  2213 ;; This function is called by:
  2214 ;;		_main
  2215 ;; This function uses a non-reentrant model
  2216 ;;
  2217                           psect	text1,class=CODE,space=0,reloc=2,group=0
  2218                           	file	"application.c"
  2219                           	line	19
  2220                           global __ptext1
  2221                           __ptext1:
  2222  0064EC                     psect	text1
  2223                           	file	"application.c"
  2224                           	line	19
  2225                           	global	__size_of_setup
  2226                           	__size_of_setup	equ	__end_of_setup-_setup
  2227  0000                     	
  2228                           _setup:
  2229  0064EC                     ;incstack = 0
  2230                           	opt	stack 27
  2231                           	line	21
  2232                           	
  2233                           l2687:
  2234  0064EC                     ;application.c: 21:     SerialBegin(9600);
  2235                           	movlw	low(02580h)
  2236  0064EC  0E80               	movwf	((c:SerialBegin@baudRate)),c
  2237  0064EE  6E0F               	movlw	high(02580h)
  2238  0064F0  0E25               	movwf	((c:SerialBegin@baudRate+1)),c
  2239  0064F2  6E10               	movlw	low highword(02580h)
  2240  0064F4  0E00               	movwf	((c:SerialBegin@baudRate+2)),c
  2241  0064F6  6E11               	movlw	high highword(02580h)
  2242  0064F8  0E00               	movwf	((c:SerialBegin@baudRate+3)),c
  2243  0064FA  6E12               	call	_SerialBegin	;wreg free
  2244  0064FC  ECB2  F034         	line	22
  2245                           ;application.c: 22:     pinMode(4,0);
  2246                           	movlw	low(0)
  2247  006500  0E00               	movwf	((c:pinMode@mode)),c
  2248  006502  6E01               	movlw	(04h)&0ffh
  2249  006504  0E04               	
  2250                           	call	_pinMode
  2251  006506  EC29  F039         	line	23
  2252                           	
  2253                           l488:
  2254  00650A                     	return	;funcret
  2255  00650A  0012               	opt stack 0
  2256                           GLOBAL	__end_of_setup
  2257                           	__end_of_setup:
  2258  00650C                     	signat	_setup,89
  2259                           	global	_pinMode
  2260                           
  2261 ;; *************** function _pinMode *****************
  2262 ;; Defined at:
  2263 ;;		line 59 in file "main.c"
  2264 ;; Parameters:    Size  Location     Type
  2265 ;;  pin             1    wreg     unsigned char 
  2266 ;;  mode            1    0[COMRAM] unsigned char 
  2267 ;; Auto vars:     Size  Location     Type
  2268 ;;  pin             1    3[COMRAM] unsigned char 
  2269 ;; Return value:  Size  Location     Type
  2270 ;;                  1    wreg      void 
  2271 ;; Registers used:
  2272 ;;		wreg, status,2, status,0
  2273 ;; Tracked objects:
  2274 ;;		On entry : 0/0
  2275 ;;		On exit  : 0/0
  2276 ;;		Unchanged: 0/0
  2277 ;; Data sizes:     COMRAM   BANK0   BANK1   BANK2   BANK3   BANK4   BANK5   BANK6   BANK7
  2278 ;;      Params:         1       0       0       0       0       0       0       0       0
  2279 ;;      Locals:         1       0       0       0       0       0       0       0       0
  2280 ;;      Temps:          2       0       0       0       0       0       0       0       0
  2281 ;;      Totals:         4       0       0       0       0       0       0       0       0
  2282 ;;Total ram usage:        4 bytes
  2283 ;; Hardware stack levels used:    1
  2284 ;; Hardware stack levels required when called:    1
  2285 ;; This function calls:
  2286 ;;		Nothing
  2287 ;; This function is called by:
  2288 ;;		_setup
  2289 ;;		_Hola_Mundo_Init
  2290 ;; This function uses a non-reentrant model
  2291 ;;
  2292                           psect	text2,class=CODE,space=0,reloc=2,group=0
  2293                           	file	"main.c"
  2294                           	line	59
  2295                           global __ptext2
  2296                           __ptext2:
  2297  007252                     psect	text2
  2298                           	file	"main.c"
  2299                           	line	59
  2300                           	global	__size_of_pinMode
  2301                           	__size_of_pinMode	equ	__end_of_pinMode-_pinMode
  2302  0000                     	
  2303                           _pinMode:
  2304  007252                     ;incstack = 0
  2305                           	opt	stack 28
  2306                           ;pinMode@pin stored from wreg
  2307                           	movwf	((c:pinMode@pin)),c
  2308  007252  6E04               	line	61
  2309                           	
  2310                           l2539:
  2311  007254                     ;main.c: 59: void pinMode(char pin, char mode);main.c: 60: {;main.c: 61:     switch(pin)
                                 
  2312                           	goto	l2543
  2313  007254  EFCF  F039         	line	63
  2314                           ;main.c: 62:     {;main.c: 63:         case 0:
  2315                           	
  2316                           l185:
  2317  007258                     	line	64
  2318                           ;main.c: 64:             TRISAbits.RA4 = mode;
  2319                           	btfsc	(c:pinMode@mode),c,0
  2320  007258  B001               	bra	u2475
  2321  00725A  D002               	bcf	((c:3986)),c,4	;volatile
  2322  00725C  9892               	bra	u2476
  2323  00725E  D001               	u2475:
  2324  007260                     	bsf	((c:3986)),c,4	;volatile
  2325  007260  8892               	u2476:
  2326  007262                     
  2327                           	line	65
  2328                           ;main.c: 65:             break;
  2329                           	goto	l209
  2330  007262  EF38  F03A         	line	66
  2331                           ;main.c: 66:         case 1:
  2332                           	
  2333                           l187:
  2334  007266                     	line	67
  2335                           ;main.c: 67:             TRISAbits.RA5 = mode;
  2336                           	btfsc	(c:pinMode@mode),c,0
  2337  007266  B001               	bra	u2485
  2338  007268  D002               	bcf	((c:3986)),c,5	;volatile
  2339  00726A  9A92               	bra	u2486
  2340  00726C  D001               	u2485:
  2341  00726E                     	bsf	((c:3986)),c,5	;volatile
  2342  00726E  8A92               	u2486:
  2343  007270                     
  2344                           	line	68
  2345                           ;main.c: 68:             break;
  2346                           	goto	l209
  2347  007270  EF38  F03A         	line	69
  2348                           ;main.c: 69:         case 2:
  2349                           	
  2350                           l188:
  2351  007274                     	line	70
  2352                           ;main.c: 70:             TRISCbits.RC0 = mode;
  2353                           	btfsc	(c:pinMode@mode),c,0
  2354  007274  B001               	bra	u2495
  2355  007276  D002               	bcf	((c:3988)),c,0	;volatile
  2356  007278  9094               	bra	u2496
  2357  00727A  D001               	u2495:
  2358  00727C                     	bsf	((c:3988)),c,0	;volatile
  2359  00727C  8094               	u2496:
  2360  00727E                     
  2361                           	line	71
  2362                           ;main.c: 71:             break;
  2363                           	goto	l209
  2364  00727E  EF38  F03A         	line	72
  2365                           ;main.c: 72:         case 3:
  2366                           	
  2367                           l189:
  2368  007282                     	line	73
  2369                           ;main.c: 73:             TRISCbits.RC1 = mode;
  2370                           	btfsc	(c:pinMode@mode),c,0
  2371  007282  B001               	bra	u2505
  2372  007284  D002               	bcf	((c:3988)),c,1	;volatile
  2373  007286  9294               	bra	u2506
  2374  007288  D001               	u2505:
  2375  00728A                     	bsf	((c:3988)),c,1	;volatile
  2376  00728A  8294               	u2506:
  2377  00728C                     
  2378                           	line	74
  2379                           ;main.c: 74:             break;
  2380                           	goto	l209
  2381  00728C  EF38  F03A         	line	75
  2382                           ;main.c: 75:         case 4:
  2383                           	
  2384                           l190:
  2385  007290                     	line	76
  2386                           ;main.c: 76:             TRISCbits.RC2 = mode;
  2387                           	btfsc	(c:pinMode@mode),c,0
  2388  007290  B001               	bra	u2515
  2389  007292  D002               	bcf	((c:3988)),c,2	;volatile
  2390  007294  9494               	bra	u2516
  2391  007296  D001               	u2515:
  2392  007298                     	bsf	((c:3988)),c,2	;volatile
  2393  007298  8494               	u2516:
  2394  00729A                     
  2395                           	line	77
  2396                           ;main.c: 77:             break;
  2397                           	goto	l209
  2398  00729A  EF38  F03A         	line	78
  2399                           ;main.c: 78:         case 5:
  2400                           	
  2401                           l191:
  2402  00729E                     	line	79
  2403                           ;main.c: 79:             TRISDbits.RD0 = mode;
  2404                           	btfsc	(c:pinMode@mode),c,0
  2405  00729E  B001               	bra	u2525
  2406  0072A0  D002               	bcf	((c:3989)),c,0	;volatile
  2407  0072A2  9095               	bra	u2526
  2408  0072A4  D001               	u2525:
  2409  0072A6                     	bsf	((c:3989)),c,0	;volatile
  2410  0072A6  8095               	u2526:
  2411  0072A8                     
  2412                           	line	80
  2413                           ;main.c: 80:             break;
  2414                           	goto	l209
  2415  0072A8  EF38  F03A         	line	81
  2416                           ;main.c: 81:         case 6:
  2417                           	
  2418                           l192:
  2419  0072AC                     	line	82
  2420                           ;main.c: 82:             TRISDbits.RD1 = mode;
  2421                           	btfsc	(c:pinMode@mode),c,0
  2422  0072AC  B001               	bra	u2535
  2423  0072AE  D002               	bcf	((c:3989)),c,1	;volatile
  2424  0072B0  9295               	bra	u2536
  2425  0072B2  D001               	u2535:
  2426  0072B4                     	bsf	((c:3989)),c,1	;volatile
  2427  0072B4  8295               	u2536:
  2428  0072B6                     
  2429                           	line	83
  2430                           ;main.c: 83:             break;
  2431                           	goto	l209
  2432  0072B6  EF38  F03A         	line	84
  2433                           ;main.c: 84:         case 7:
  2434                           	
  2435                           l193:
  2436  0072BA                     	line	85
  2437                           ;main.c: 85:             TRISDbits.RD2 = mode;
  2438                           	btfsc	(c:pinMode@mode),c,0
  2439  0072BA  B001               	bra	u2545
  2440  0072BC  D002               	bcf	((c:3989)),c,2	;volatile
  2441  0072BE  9495               	bra	u2546
  2442  0072C0  D001               	u2545:
  2443  0072C2                     	bsf	((c:3989)),c,2	;volatile
  2444  0072C2  8495               	u2546:
  2445  0072C4                     
  2446                           	line	86
  2447                           ;main.c: 86:             break;
  2448                           	goto	l209
  2449  0072C4  EF38  F03A         	line	87
  2450                           ;main.c: 87:         case 8:
  2451                           	
  2452                           l194:
  2453  0072C8                     	line	88
  2454                           ;main.c: 88:             TRISDbits.RD3 = mode;
  2455                           	btfsc	(c:pinMode@mode),c,0
  2456  0072C8  B001               	bra	u2555
  2457  0072CA  D002               	bcf	((c:3989)),c,3	;volatile
  2458  0072CC  9695               	bra	u2556
  2459  0072CE  D001               	u2555:
  2460  0072D0                     	bsf	((c:3989)),c,3	;volatile
  2461  0072D0  8695               	u2556:
  2462  0072D2                     
  2463                           	line	89
  2464                           ;main.c: 89:             break;
  2465                           	goto	l209
  2466  0072D2  EF38  F03A         	line	90
  2467                           ;main.c: 90:         case 9:
  2468                           	
  2469                           l195:
  2470  0072D6                     	line	91
  2471                           ;main.c: 91:             TRISCbits.RC6 = mode;
  2472                           	btfsc	(c:pinMode@mode),c,0
  2473  0072D6  B001               	bra	u2565
  2474  0072D8  D002               	bcf	((c:3988)),c,6	;volatile
  2475  0072DA  9C94               	bra	u2566
  2476  0072DC  D001               	u2565:
  2477  0072DE                     	bsf	((c:3988)),c,6	;volatile
  2478  0072DE  8C94               	u2566:
  2479  0072E0                     
  2480                           	line	92
  2481                           ;main.c: 92:             break;
  2482                           	goto	l209
  2483  0072E0  EF38  F03A         	line	93
  2484                           ;main.c: 93:         case 10:
  2485                           	
  2486                           l196:
  2487  0072E4                     	line	94
  2488                           ;main.c: 94:             TRISCbits.RC7 = mode;
  2489                           	btfsc	(c:pinMode@mode),c,0
  2490  0072E4  B001               	bra	u2575
  2491  0072E6  D002               	bcf	((c:3988)),c,7	;volatile
  2492  0072E8  9E94               	bra	u2576
  2493  0072EA  D001               	u2575:
  2494  0072EC                     	bsf	((c:3988)),c,7	;volatile
  2495  0072EC  8E94               	u2576:
  2496  0072EE                     
  2497                           	line	95
  2498                           ;main.c: 95:             break;
  2499                           	goto	l209
  2500  0072EE  EF38  F03A         	line	96
  2501                           ;main.c: 96:         case 11:
  2502                           	
  2503                           l197:
  2504  0072F2                     	line	97
  2505                           ;main.c: 97:             TRISDbits.RD4 = mode;
  2506                           	btfsc	(c:pinMode@mode),c,0
  2507  0072F2  B001               	bra	u2585
  2508  0072F4  D002               	bcf	((c:3989)),c,4	;volatile
  2509  0072F6  9895               	bra	u2586
  2510  0072F8  D001               	u2585:
  2511  0072FA                     	bsf	((c:3989)),c,4	;volatile
  2512  0072FA  8895               	u2586:
  2513  0072FC                     
  2514                           	line	98
  2515                           ;main.c: 98:             break;
  2516                           	goto	l209
  2517  0072FC  EF38  F03A         	line	99
  2518                           ;main.c: 99:         case 12:
  2519                           	
  2520                           l198:
  2521  007300                     	line	100
  2522                           ;main.c: 100:             TRISDbits.RD5 = mode;
  2523                           	btfsc	(c:pinMode@mode),c,0
  2524  007300  B001               	bra	u2595
  2525  007302  D002               	bcf	((c:3989)),c,5	;volatile
  2526  007304  9A95               	bra	u2596
  2527  007306  D001               	u2595:
  2528  007308                     	bsf	((c:3989)),c,5	;volatile
  2529  007308  8A95               	u2596:
  2530  00730A                     
  2531                           	line	101
  2532                           ;main.c: 101:             break;
  2533                           	goto	l209
  2534  00730A  EF38  F03A         	line	102
  2535                           ;main.c: 102:         case 13:
  2536                           	
  2537                           l199:
  2538  00730E                     	line	103
  2539                           ;main.c: 103:             TRISDbits.RD6 = mode;
  2540                           	btfsc	(c:pinMode@mode),c,0
  2541  00730E  B001               	bra	u2605
  2542  007310  D002               	bcf	((c:3989)),c,6	;volatile
  2543  007312  9C95               	bra	u2606
  2544  007314  D001               	u2605:
  2545  007316                     	bsf	((c:3989)),c,6	;volatile
  2546  007316  8C95               	u2606:
  2547  007318                     
  2548                           	line	104
  2549                           ;main.c: 104:             break;
  2550                           	goto	l209
  2551  007318  EF38  F03A         	line	105
  2552                           ;main.c: 105:         case 14:
  2553                           	
  2554                           l200:
  2555  00731C                     	line	106
  2556                           ;main.c: 106:             TRISDbits.RD7 = mode;
  2557                           	btfsc	(c:pinMode@mode),c,0
  2558  00731C  B001               	bra	u2615
  2559  00731E  D002               	bcf	((c:3989)),c,7	;volatile
  2560  007320  9E95               	bra	u2616
  2561  007322  D001               	u2615:
  2562  007324                     	bsf	((c:3989)),c,7	;volatile
  2563  007324  8E95               	u2616:
  2564  007326                     
  2565                           	line	107
  2566                           ;main.c: 107:             break;
  2567                           	goto	l209
  2568  007326  EF38  F03A         	line	108
  2569                           ;main.c: 108:         case 15:
  2570                           	
  2571                           l201:
  2572  00732A                     	line	109
  2573                           ;main.c: 109:             TRISBbits.RB0 = mode;
  2574                           	btfsc	(c:pinMode@mode),c,0
  2575  00732A  B001               	bra	u2625
  2576  00732C  D002               	bcf	((c:3987)),c,0	;volatile
  2577  00732E  9093               	bra	u2626
  2578  007330  D001               	u2625:
  2579  007332                     	bsf	((c:3987)),c,0	;volatile
  2580  007332  8093               	u2626:
  2581  007334                     
  2582                           	line	110
  2583                           ;main.c: 110:             break;
  2584                           	goto	l209
  2585  007334  EF38  F03A         	line	111
  2586                           ;main.c: 111:         case 16:
  2587                           	
  2588                           l202:
  2589  007338                     	line	112
  2590                           ;main.c: 112:             TRISBbits.RB1 = mode;
  2591                           	btfsc	(c:pinMode@mode),c,0
  2592  007338  B001               	bra	u2635
  2593  00733A  D002               	bcf	((c:3987)),c,1	;volatile
  2594  00733C  9293               	bra	u2636
  2595  00733E  D001               	u2635:
  2596  007340                     	bsf	((c:3987)),c,1	;volatile
  2597  007340  8293               	u2636:
  2598  007342                     
  2599                           	line	113
  2600                           ;main.c: 113:             break;
  2601                           	goto	l209
  2602  007342  EF38  F03A         	line	114
  2603                           ;main.c: 114:         case 17:
  2604                           	
  2605                           l203:
  2606  007346                     	line	115
  2607                           ;main.c: 115:             TRISBbits.RB2 = mode;
  2608                           	btfsc	(c:pinMode@mode),c,0
  2609  007346  B001               	bra	u2645
  2610  007348  D002               	bcf	((c:3987)),c,2	;volatile
  2611  00734A  9493               	bra	u2646
  2612  00734C  D001               	u2645:
  2613  00734E                     	bsf	((c:3987)),c,2	;volatile
  2614  00734E  8493               	u2646:
  2615  007350                     
  2616                           	line	116
  2617                           ;main.c: 116:             break;
  2618                           	goto	l209
  2619  007350  EF38  F03A         	line	117
  2620                           ;main.c: 117:         case 18:
  2621                           	
  2622                           l204:
  2623  007354                     	line	118
  2624                           ;main.c: 118:             TRISBbits.RB3 = mode;
  2625                           	btfsc	(c:pinMode@mode),c,0
  2626  007354  B001               	bra	u2655
  2627  007356  D002               	bcf	((c:3987)),c,3	;volatile
  2628  007358  9693               	bra	u2656
  2629  00735A  D001               	u2655:
  2630  00735C                     	bsf	((c:3987)),c,3	;volatile
  2631  00735C  8693               	u2656:
  2632  00735E                     
  2633                           	line	119
  2634                           ;main.c: 119:             break;
  2635                           	goto	l209
  2636  00735E  EF38  F03A         	line	120
  2637                           ;main.c: 120:         case 19:
  2638                           	
  2639                           l205:
  2640  007362                     	line	121
  2641                           ;main.c: 121:             TRISBbits.RB4 = mode;
  2642                           	btfsc	(c:pinMode@mode),c,0
  2643  007362  B001               	bra	u2665
  2644  007364  D002               	bcf	((c:3987)),c,4	;volatile
  2645  007366  9893               	bra	u2666
  2646  007368  D001               	u2665:
  2647  00736A                     	bsf	((c:3987)),c,4	;volatile
  2648  00736A  8893               	u2666:
  2649  00736C                     
  2650                           	line	122
  2651                           ;main.c: 122:             break;
  2652                           	goto	l209
  2653  00736C  EF38  F03A         	line	123
  2654                           ;main.c: 123:         case 20:
  2655                           	
  2656                           l206:
  2657  007370                     	line	124
  2658                           ;main.c: 124:             TRISBbits.RB5 = mode;
  2659                           	btfsc	(c:pinMode@mode),c,0
  2660  007370  B001               	bra	u2675
  2661  007372  D002               	bcf	((c:3987)),c,5	;volatile
  2662  007374  9A93               	bra	u2676
  2663  007376  D001               	u2675:
  2664  007378                     	bsf	((c:3987)),c,5	;volatile
  2665  007378  8A93               	u2676:
  2666  00737A                     
  2667                           	line	125
  2668                           ;main.c: 125:             break;
  2669                           	goto	l209
  2670  00737A  EF38  F03A         	line	126
  2671                           ;main.c: 126:         case 21:
  2672                           	
  2673                           l207:
  2674  00737E                     	line	127
  2675                           ;main.c: 127:             TRISBbits.RB6 = mode;
  2676                           	btfsc	(c:pinMode@mode),c,0
  2677  00737E  B001               	bra	u2685
  2678  007380  D002               	bcf	((c:3987)),c,6	;volatile
  2679  007382  9C93               	bra	u2686
  2680  007384  D001               	u2685:
  2681  007386                     	bsf	((c:3987)),c,6	;volatile
  2682  007386  8C93               	u2686:
  2683  007388                     
  2684                           	line	128
  2685                           ;main.c: 128:             break;
  2686                           	goto	l209
  2687  007388  EF38  F03A         	line	129
  2688                           ;main.c: 129:         case 22:
  2689                           	
  2690                           l208:
  2691  00738C                     	line	130
  2692                           ;main.c: 130:             TRISBbits.RB7 = mode;
  2693                           	btfsc	(c:pinMode@mode),c,0
  2694  00738C  B001               	bra	u2695
  2695  00738E  D002               	bcf	((c:3987)),c,7	;volatile
  2696  007390  9E93               	bra	u2696
  2697  007392  D001               	u2695:
  2698  007394                     	bsf	((c:3987)),c,7	;volatile
  2699  007394  8E93               	u2696:
  2700  007396                     
  2701                           	line	131
  2702                           ;main.c: 131:             break;
  2703                           	goto	l209
  2704  007396  EF38  F03A         	line	132
  2705                           	
  2706                           l2541:
  2707  00739A                     ;main.c: 132:     }
  2708                           	goto	l209
  2709  00739A  EF38  F03A         	
  2710                           l184:
  2711  00739E                     	
  2712                           l2543:
  2713  00739E                     	movf	((c:pinMode@pin)),c,w
  2714  00739E  5004               	movwf	(??_pinMode+0+0)&0ffh,c
  2715  0073A0  6E02               	clrf	(??_pinMode+0+0+1)&0ffh,c
  2716  0073A2  6A03               
  2717                           	; Switch on 2 bytes has been partitioned into a top level switch of size 1, and 1 sub-s
                                 witches
  2718                           ; Switch size 1, requested type "space"
  2719                           ; Number of cases is 1, Range of values is 0 to 0
  2720                           ; switch strategies available:
  2721                           ; Name         Instructions Cycles
  2722                           ; simple_byte            4     3 (average)
  2723                           ;	Chosen strategy is simple_byte
  2724                           
  2725                           	movf ??_pinMode+0+1,c,w
  2726  0073A4  5003               	xorlw	0^0	; case 0
  2727  0073A6  0A00               	skipnz
  2728  0073A8  B4D8               	goto	l3075
  2729  0073AA  EFD9  F039         	goto	l209
  2730  0073AE  EF38  F03A         	
  2731                           l3075:
  2732  0073B2                     ; Switch size 1, requested type "space"
  2733                           ; Number of cases is 23, Range of values is 0 to 22
  2734                           ; switch strategies available:
  2735                           ; Name         Instructions Cycles
  2736                           ; simple_byte           70    36 (average)
  2737                           ;	Chosen strategy is simple_byte
  2738                           
  2739                           	movf ??_pinMode+0+0,c,w
  2740  0073B2  5002               	xorlw	0^0	; case 0
  2741  0073B4  0A00               	skipnz
  2742  0073B6  B4D8               	goto	l185
  2743  0073B8  EF2C  F039         	xorlw	1^0	; case 1
  2744  0073BC  0A01               	skipnz
  2745  0073BE  B4D8               	goto	l187
  2746  0073C0  EF33  F039         	xorlw	2^1	; case 2
  2747  0073C4  0A03               	skipnz
  2748  0073C6  B4D8               	goto	l188
  2749  0073C8  EF3A  F039         	xorlw	3^2	; case 3
  2750  0073CC  0A01               	skipnz
  2751  0073CE  B4D8               	goto	l189
  2752  0073D0  EF41  F039         	xorlw	4^3	; case 4
  2753  0073D4  0A07               	skipnz
  2754  0073D6  B4D8               	goto	l190
  2755  0073D8  EF48  F039         	xorlw	5^4	; case 5
  2756  0073DC  0A01               	skipnz
  2757  0073DE  B4D8               	goto	l191
  2758  0073E0  EF4F  F039         	xorlw	6^5	; case 6
  2759  0073E4  0A03               	skipnz
  2760  0073E6  B4D8               	goto	l192
  2761  0073E8  EF56  F039         	xorlw	7^6	; case 7
  2762  0073EC  0A01               	skipnz
  2763  0073EE  B4D8               	goto	l193
  2764  0073F0  EF5D  F039         	xorlw	8^7	; case 8
  2765  0073F4  0A0F               	skipnz
  2766  0073F6  B4D8               	goto	l194
  2767  0073F8  EF64  F039         	xorlw	9^8	; case 9
  2768  0073FC  0A01               	skipnz
  2769  0073FE  B4D8               	goto	l195
  2770  007400  EF6B  F039         	xorlw	10^9	; case 10
  2771  007404  0A03               	skipnz
  2772  007406  B4D8               	goto	l196
  2773  007408  EF72  F039         	xorlw	11^10	; case 11
  2774  00740C  0A01               	skipnz
  2775  00740E  B4D8               	goto	l197
  2776  007410  EF79  F039         	xorlw	12^11	; case 12
  2777  007414  0A07               	skipnz
  2778  007416  B4D8               	goto	l198
  2779  007418  EF80  F039         	xorlw	13^12	; case 13
  2780  00741C  0A01               	skipnz
  2781  00741E  B4D8               	goto	l199
  2782  007420  EF87  F039         	xorlw	14^13	; case 14
  2783  007424  0A03               	skipnz
  2784  007426  B4D8               	goto	l200
  2785  007428  EF8E  F039         	xorlw	15^14	; case 15
  2786  00742C  0A01               	skipnz
  2787  00742E  B4D8               	goto	l201
  2788  007430  EF95  F039         	xorlw	16^15	; case 16
  2789  007434  0A1F               	skipnz
  2790  007436  B4D8               	goto	l202
  2791  007438  EF9C  F039         	xorlw	17^16	; case 17
  2792  00743C  0A01               	skipnz
  2793  00743E  B4D8               	goto	l203
  2794  007440  EFA3  F039         	xorlw	18^17	; case 18
  2795  007444  0A03               	skipnz
  2796  007446  B4D8               	goto	l204
  2797  007448  EFAA  F039         	xorlw	19^18	; case 19
  2798  00744C  0A01               	skipnz
  2799  00744E  B4D8               	goto	l205
  2800  007450  EFB1  F039         	xorlw	20^19	; case 20
  2801  007454  0A07               	skipnz
  2802  007456  B4D8               	goto	l206
  2803  007458  EFB8  F039         	xorlw	21^20	; case 21
  2804  00745C  0A01               	skipnz
  2805  00745E  B4D8               	goto	l207
  2806  007460  EFBF  F039         	xorlw	22^21	; case 22
  2807  007464  0A03               	skipnz
  2808  007466  B4D8               	goto	l208
  2809  007468  EFC6  F039         	goto	l209
  2810  00746C  EF38  F03A         
  2811                           	
  2812                           l186:
  2813  007470                     	line	133
  2814                           	
  2815                           l209:
  2816  007470                     	return	;funcret
  2817  007470  0012               	opt stack 0
  2818                           GLOBAL	__end_of_pinMode
  2819                           	__end_of_pinMode:
  2820  007472                     	signat	_pinMode,8313
  2821                           	global	_SerialBegin
  2822                           
  2823 ;; *************** function _SerialBegin *****************
  2824 ;; Defined at:
  2825 ;;		line 554 in file "main.c"
  2826 ;; Parameters:    Size  Location     Type
  2827 ;;  baudRate        4   14[COMRAM] const long 
  2828 ;; Auto vars:     Size  Location     Type
  2829 ;;  x               4   22[COMRAM] unsigned long 
  2830 ;; Return value:  Size  Location     Type
  2831 ;;                  1    wreg      unsigned char 
  2832 ;; Registers used:
  2833 ;;		wreg, status,2, status,0, cstack
  2834 ;; Tracked objects:
  2835 ;;		On entry : 0/0
  2836 ;;		On exit  : 0/0
  2837 ;;		Unchanged: 0/0
  2838 ;; Data sizes:     COMRAM   BANK0   BANK1   BANK2   BANK3   BANK4   BANK5   BANK6   BANK7
  2839 ;;      Params:         4       0       0       0       0       0       0       0       0
  2840 ;;      Locals:         8       0       0       0       0       0       0       0       0
  2841 ;;      Temps:          0       0       0       0       0       0       0       0       0
  2842 ;;      Totals:        12       0       0       0       0       0       0       0       0
  2843 ;;Total ram usage:       12 bytes
  2844 ;; Hardware stack levels used:    1
  2845 ;; Hardware stack levels required when called:    2
  2846 ;; This function calls:
  2847 ;;		___aldiv
  2848 ;; This function is called by:
  2849 ;;		_setup
  2850 ;; This function uses a non-reentrant model
  2851 ;;
  2852                           psect	text3,class=CODE,space=0,reloc=2,group=0
  2853                           	line	554
  2854                           global __ptext3
  2855                           __ptext3:
  2856  006964                     psect	text3
  2857                           	file	"main.c"
  2858                           	line	554
  2859                           	global	__size_of_SerialBegin
  2860                           	__size_of_SerialBegin	equ	__end_of_SerialBegin-_SerialBegin
  2861  0000                     	
  2862                           _SerialBegin:
  2863  006964                     ;incstack = 0
  2864                           	opt	stack 27
  2865                           	line	557
  2866                           	
  2867                           l2621:
  2868  006964                     ;main.c: 554: char SerialBegin(const long int baudRate);main.c: 555: {;main.c: 556:     
                                 unsigned long int x;;main.c: 557:     x = ((24000000 / baudRate)/16) - 1;
  2869                           	movff	(c:SerialBegin@baudRate),(c:___aldiv@divisor)
  2870  006964  C00F  F005         	movff	(c:SerialBegin@baudRate+1),(c:___aldiv@divisor+1)
  2871  006968  C010  F006         	movff	(c:SerialBegin@baudRate+2),(c:___aldiv@divisor+2)
  2872  00696C  C011  F007         	movff	(c:SerialBegin@baudRate+3),(c:___aldiv@divisor+3)
  2873  006970  C012  F008         	movlw	low(016E3600h)
  2874  006974  0E00               	movwf	((c:___aldiv@dividend)),c
  2875  006976  6E01               	movlw	high(016E3600h)
  2876  006978  0E36               	movwf	((c:___aldiv@dividend+1)),c
  2877  00697A  6E02               	movlw	low highword(016E3600h)
  2878  00697C  0E6E               	movwf	((c:___aldiv@dividend+2)),c
  2879  00697E  6E03               	movlw	high highword(016E3600h)
  2880  006980  0E01               	movwf	((c:___aldiv@dividend+3)),c
  2881  006982  6E04               	call	___aldiv	;wreg free
  2882  006984  EC46  F035         	movff	0+?___aldiv,(c:_SerialBegin$1934)
  2883  006988  C001  F013         	movff	1+?___aldiv,(c:_SerialBegin$1934+1)
  2884  00698C  C002  F014         	movff	2+?___aldiv,(c:_SerialBegin$1934+2)
  2885  006990  C003  F015         	movff	3+?___aldiv,(c:_SerialBegin$1934+3)
  2886  006994  C004  F016         	
  2887                           ;main.c: 554: char SerialBegin(const long int baudRate);main.c: 555: {;main.c: 556:     
                                 unsigned long int x;;main.c: 557:     x = ((24000000 / baudRate)/16) - 1;
  2888                           	movff	(c:_SerialBegin$1934),(c:___aldiv@dividend)
  2889  006998  C013  F001         	movff	(c:_SerialBegin$1934+1),(c:___aldiv@dividend+1)
  2890  00699C  C014  F002         	movff	(c:_SerialBegin$1934+2),(c:___aldiv@dividend+2)
  2891  0069A0  C015  F003         	movff	(c:_SerialBegin$1934+3),(c:___aldiv@dividend+3)
  2892  0069A4  C016  F004         	movlw	low(010h)
  2893  0069A8  0E10               	movwf	((c:___aldiv@divisor)),c
  2894  0069AA  6E05               	movlw	high(010h)
  2895  0069AC  0E00               	movwf	((c:___aldiv@divisor+1)),c
  2896  0069AE  6E06               	movlw	low highword(010h)
  2897  0069B0  0E00               	movwf	((c:___aldiv@divisor+2)),c
  2898  0069B2  6E07               	movlw	high highword(010h)
  2899  0069B4  0E00               	movwf	((c:___aldiv@divisor+3)),c
  2900  0069B6  6E08               	call	___aldiv	;wreg free
  2901  0069B8  EC46  F035         	movlw	0FFh
  2902  0069BC  0EFF               	addwf	(0+?___aldiv),c,w
  2903  0069BE  2401               	movwf	((c:SerialBegin@x)),c
  2904  0069C0  6E17               	movlw	0FFh
  2905  0069C2  0EFF               	addwfc	(1+?___aldiv),c,w
  2906  0069C4  2002               	movwf	1+((c:SerialBegin@x)),c
  2907  0069C6  6E18               	
  2908                           	movlw	0FFh
  2909  0069C8  0EFF               	addwfc	(2+?___aldiv),c,w
  2910  0069CA  2003               	movwf	2+((c:SerialBegin@x)),c
  2911  0069CC  6E19               	
  2912                           	movlw	0FFh
  2913  0069CE  0EFF               	addwfc	(3+?___aldiv),c,w
  2914  0069D0  2004               	movwf	3+((c:SerialBegin@x)),c
  2915  0069D2  6E1A               	line	558
  2916                           	
  2917                           l2623:
  2918  0069D4                     ;main.c: 558:     if(x > 255)
  2919                           		movf	((c:SerialBegin@x+3)),c,w
  2920  0069D4  501A               	iorwf	((c:SerialBegin@x+2)),c,w
  2921  0069D6  1019               	bnz	u2760
  2922  0069D8  E108               	decf	((c:SerialBegin@x+1)),c,w
  2923  0069DA  0418               	btfss	status,0
  2924  0069DC  A0D8               	goto	u2761
  2925  0069DE  EFF3  F034         	goto	u2760
  2926  0069E2  EFF5  F034         
  2927                           u2761:
  2928  0069E6                     	goto	l2629
  2929  0069E6  EF30  F035         u2760:
  2930  0069EA                     	line	560
  2931                           	
  2932                           l2625:
  2933  0069EA                     ;main.c: 559:     {;main.c: 560:         x = ((24000000 / baudRate)/16) - 1;
  2934                           	movff	(c:SerialBegin@baudRate),(c:___aldiv@divisor)
  2935  0069EA  C00F  F005         	movff	(c:SerialBegin@baudRate+1),(c:___aldiv@divisor+1)
  2936  0069EE  C010  F006         	movff	(c:SerialBegin@baudRate+2),(c:___aldiv@divisor+2)
  2937  0069F2  C011  F007         	movff	(c:SerialBegin@baudRate+3),(c:___aldiv@divisor+3)
  2938  0069F6  C012  F008         	movlw	low(016E3600h)
  2939  0069FA  0E00               	movwf	((c:___aldiv@dividend)),c
  2940  0069FC  6E01               	movlw	high(016E3600h)
  2941  0069FE  0E36               	movwf	((c:___aldiv@dividend+1)),c
  2942  006A00  6E02               	movlw	low highword(016E3600h)
  2943  006A02  0E6E               	movwf	((c:___aldiv@dividend+2)),c
  2944  006A04  6E03               	movlw	high highword(016E3600h)
  2945  006A06  0E01               	movwf	((c:___aldiv@dividend+3)),c
  2946  006A08  6E04               	call	___aldiv	;wreg free
  2947  006A0A  EC46  F035         	movff	0+?___aldiv,(c:_SerialBegin$1934)
  2948  006A0E  C001  F013         	movff	1+?___aldiv,(c:_SerialBegin$1934+1)
  2949  006A12  C002  F014         	movff	2+?___aldiv,(c:_SerialBegin$1934+2)
  2950  006A16  C003  F015         	movff	3+?___aldiv,(c:_SerialBegin$1934+3)
  2951  006A1A  C004  F016         	
  2952                           ;main.c: 559:     {;main.c: 560:         x = ((24000000 / baudRate)/16) - 1;
  2953                           	movff	(c:_SerialBegin$1934),(c:___aldiv@dividend)
  2954  006A1E  C013  F001         	movff	(c:_SerialBegin$1934+1),(c:___aldiv@dividend+1)
  2955  006A22  C014  F002         	movff	(c:_SerialBegin$1934+2),(c:___aldiv@dividend+2)
  2956  006A26  C015  F003         	movff	(c:_SerialBegin$1934+3),(c:___aldiv@dividend+3)
  2957  006A2A  C016  F004         	movlw	low(010h)
  2958  006A2E  0E10               	movwf	((c:___aldiv@divisor)),c
  2959  006A30  6E05               	movlw	high(010h)
  2960  006A32  0E00               	movwf	((c:___aldiv@divisor+1)),c
  2961  006A34  6E06               	movlw	low highword(010h)
  2962  006A36  0E00               	movwf	((c:___aldiv@divisor+2)),c
  2963  006A38  6E07               	movlw	high highword(010h)
  2964  006A3A  0E00               	movwf	((c:___aldiv@divisor+3)),c
  2965  006A3C  6E08               	call	___aldiv	;wreg free
  2966  006A3E  EC46  F035         	movlw	0FFh
  2967  006A42  0EFF               	addwf	(0+?___aldiv),c,w
  2968  006A44  2401               	movwf	((c:SerialBegin@x)),c
  2969  006A46  6E17               	movlw	0FFh
  2970  006A48  0EFF               	addwfc	(1+?___aldiv),c,w
  2971  006A4A  2002               	movwf	1+((c:SerialBegin@x)),c
  2972  006A4C  6E18               	
  2973                           	movlw	0FFh
  2974  006A4E  0EFF               	addwfc	(2+?___aldiv),c,w
  2975  006A50  2003               	movwf	2+((c:SerialBegin@x)),c
  2976  006A52  6E19               	
  2977                           	movlw	0FFh
  2978  006A54  0EFF               	addwfc	(3+?___aldiv),c,w
  2979  006A56  2004               	movwf	3+((c:SerialBegin@x)),c
  2980  006A58  6E1A               	line	561
  2981                           	
  2982                           l2627:
  2983  006A5A                     ;main.c: 561:         BRGH = 1;
  2984                           	bsf	c:(32098/8),(32098)&7	;volatile
  2985  006A5A  84AC               	goto	l2629
  2986  006A5C  EF30  F035         	line	562
  2987                           ;main.c: 562:     }
  2988                           	
  2989                           l391:
  2990  006A60                     	line	563
  2991                           	
  2992                           l2629:
  2993  006A60                     ;main.c: 563:     if(x < 256)
  2994                           		movf	((c:SerialBegin@x+3)),c,w
  2995  006A60  501A               	iorwf	((c:SerialBegin@x+2)),c,w
  2996  006A62  1019               	bnz	u2771
  2997  006A64  E106               	decf	((c:SerialBegin@x+1)),c,w
  2998  006A66  0418               	btfsc	status,0
  2999  006A68  B0D8               	goto	u2771
  3000  006A6A  EF39  F035         	goto	u2770
  3001  006A6E  EF3B  F035         
  3002                           u2771:
  3003  006A72                     	goto	l393
  3004  006A72  EF45  F035         u2770:
  3005  006A76                     	line	565
  3006                           	
  3007                           l2631:
  3008  006A76                     ;main.c: 564:     {;main.c: 565:         SPBRG = x;
  3009                           	movff	(c:SerialBegin@x),(c:4015)	;volatile
  3010  006A76  C017  FFAF         	line	566
  3011                           ;main.c: 566:         SYNC = 0;
  3012                           	bcf	c:(32100/8),(32100)&7	;volatile
  3013  006A7A  98AC               	line	567
  3014                           ;main.c: 567:         SPEN = 1;
  3015                           	bsf	c:(32095/8),(32095)&7	;volatile
  3016  006A7C  8EAB               	line	568
  3017                           ;main.c: 568:         TRISC6 = 1;
  3018                           	bsf	c:(31910/8),(31910)&7	;volatile
  3019  006A7E  8C94               	line	569
  3020                           ;main.c: 569:         TRISC7 = 1;
  3021                           	bsf	c:(31911/8),(31911)&7	;volatile
  3022  006A80  8E94               	line	570
  3023                           ;main.c: 570:         CREN = 1;
  3024                           	bsf	c:(32092/8),(32092)&7	;volatile
  3025  006A82  88AB               	line	571
  3026                           ;main.c: 571:         TXEN = 1;
  3027                           	bsf	c:(32101/8),(32101)&7	;volatile
  3028  006A84  8AAC               	line	572
  3029                           ;main.c: 572:         return 1;;	Return value of _SerialBegin is never used
  3030                           	goto	l393
  3031  006A86  EF45  F035         	line	573
  3032                           ;main.c: 573:     }
  3033                           	
  3034                           l392:
  3035  006A8A                     	line	575
  3036                           ;main.c: 574:     return 0;;	Return value of _SerialBegin is never used
  3037                           	
  3038                           l393:
  3039  006A8A                     	return	;funcret
  3040  006A8A  0012               	opt stack 0
  3041                           GLOBAL	__end_of_SerialBegin
  3042                           	__end_of_SerialBegin:
  3043  006A8C                     	signat	_SerialBegin,4217
  3044                           	global	_loop
  3045                           
  3046 ;; *************** function _loop *****************
  3047 ;; Defined at:
  3048 ;;		line 25 in file "application.c"
  3049 ;; Parameters:    Size  Location     Type
  3050 ;;		None
  3051 ;; Auto vars:     Size  Location     Type
  3052 ;;  i               2   10[BANK0 ] int 
  3053 ;;  i               2    8[BANK0 ] int 
  3054 ;; Return value:  Size  Location     Type
  3055 ;;                  1    wreg      void 
  3056 ;; Registers used:
  3057 ;;		wreg, fsr2l, fsr2h, status,2, status,0, prodl, prodh, cstack
  3058 ;; Tracked objects:
  3059 ;;		On entry : 0/0
  3060 ;;		On exit  : 0/0
  3061 ;;		Unchanged: 0/0
  3062 ;; Data sizes:     COMRAM   BANK0   BANK1   BANK2   BANK3   BANK4   BANK5   BANK6   BANK7
  3063 ;;      Params:         0       0       0       0       0       0       0       0       0
  3064 ;;      Locals:         0       4       0       0       0       0       0       0       0
  3065 ;;      Temps:          0       3       0       0       0       0       0       0       0
  3066 ;;      Totals:         0       7       0       0       0       0       0       0       0
  3067 ;;Total ram usage:        7 bytes
  3068 ;; Hardware stack levels used:    1
  3069 ;; Hardware stack levels required when called:    4
  3070 ;; This function calls:
  3071 ;;		_SerialAvailable
  3072 ;;		_SerialRead
  3073 ;;		_SerialWrite
  3074 ;;		_analogRead
  3075 ;;		_analogWrite
  3076 ;;		_cocienteEntero
  3077 ;;		_delay
  3078 ;;		_residuo
  3079 ;; This function is called by:
  3080 ;;		_main
  3081 ;; This function uses a non-reentrant model
  3082 ;;
  3083                           psect	text4,class=CODE,space=0,reloc=2,group=0
  3084                           	file	"application.c"
  3085                           	line	25
  3086                           global __ptext4
  3087                           __ptext4:
  3088  006BC0                     psect	text4
  3089                           	file	"application.c"
  3090                           	line	25
  3091                           	global	__size_of_loop
  3092                           	__size_of_loop	equ	__end_of_loop-_loop
  3093  0000                     	
  3094                           _loop:
  3095  006BC0                     ;incstack = 0
  3096                           	opt	stack 26
  3097                           	line	27
  3098                           	
  3099                           l2689:
  3100  006BC0                     ;application.c: 27:     if(SerialAvailable())
  3101                           	call	_SerialAvailable	;wreg free
  3102  006BC0  EC47  F032         	iorlw	0
  3103  006BC4  0900               	btfsc	status,2
  3104  006BC6  B4D8               	goto	u2821
  3105  006BC8  EFE8  F035         	goto	u2820
  3106  006BCC  EFEA  F035         u2821:
  3107  006BD0                     	goto	l2725
  3108  006BD0  EF79  F036         u2820:
  3109  006BD4                     	line	29
  3110                           	
  3111                           l2691:
  3112  006BD4                     ;application.c: 28:     {;application.c: 29:         for(int i=0;i<buffer;i++)
  3113                           	movlw	high(0)
  3114  006BD4  0E00               	movlb	0	; () banked
  3115  006BD6  0100               	movwf	((loop@i+1))&0ffh
  3116  006BD8  6F7D               	movlw	low(0)
  3117  006BDA  0E00               	movwf	((loop@i))&0ffh
  3118  006BDC  6F7C               	goto	l2697
  3119  006BDE  EFFF  F035         	
  3120                           l493:; BSR set to: 0
  3121  006BE2                     
  3122                           	line	31
  3123                           	
  3124                           l2693:; BSR set to: 0
  3125  006BE2                     
  3126                           ;application.c: 30:         {;application.c: 31:             vectorIn[i] = SerialRead();
                                 
  3127                           	movlw	low(_vectorIn)
  3128  006BE2  0E64               	addwf	((loop@i))&0ffh,w
  3129  006BE4  257C               	movwf	c:fsr2l
  3130  006BE6  6ED9               	movlw	high(_vectorIn)
  3131  006BE8  0E00               	addwfc	((loop@i+1))&0ffh,w
  3132  006BEA  217D               	movwf	1+c:fsr2l
  3133  006BEC  6EDA               	call	_SerialRead	;wreg free
  3134  006BEE  EC58  F032         	movwf	indf2,c
  3135  006BF2  6EDF               
  3136                           	line	32
  3137                           	
  3138                           l2695:
  3139  006BF4                     ;application.c: 32:         }
  3140                           	movlb	0	; () banked
  3141  006BF4  0100               	infsnz	((loop@i))&0ffh
  3142  006BF6  4B7C               	incf	((loop@i+1))&0ffh
  3143  006BF8  2B7D               	goto	l2697
  3144  006BFA  EFFF  F035         	
  3145                           l492:; BSR set to: 0
  3146  006BFE                     
  3147                           	
  3148                           l2697:; BSR set to: 0
  3149  006BFE                     
  3150                           	movf	((_buffer))&0ffh,w
  3151  006BFE  5187               	movwf	(??_loop+0+0)&0ffh
  3152  006C00  6F79               	clrf	(??_loop+0+0+1)&0ffh
  3153  006C02  6B7A               
  3154                           		movf	(??_loop+0+0)&0ffh,w
  3155  006C04  5179               	subwf	((loop@i))&0ffh,w
  3156  006C06  5D7C               	movf	((loop@i+1))&0ffh,w
  3157  006C08  517D               	xorlw	80h
  3158  006C0A  0A80               	movwf	(??_loop+2+0)&0ffh
  3159  006C0C  6F7B               	movf	(??_loop+0+1)&0ffh,w
  3160  006C0E  517A               	xorlw	80h
  3161  006C10  0A80               	subwfb	(??_loop+2+0)&0ffh,w
  3162  006C12  597B               	btfss	status,0
  3163  006C14  A0D8               	goto	u2831
  3164  006C16  EF0F  F036         	goto	u2830
  3165  006C1A  EF11  F036         
  3166                           u2831:
  3167  006C1E                     	goto	l2693
  3168  006C1E  EFF1  F035         u2830:
  3169  006C22                     	
  3170                           l494:; BSR set to: 0
  3171  006C22                     
  3172                           	line	33
  3173                           ;application.c: 33:         PWMLSB = vectorIn[1];
  3174                           	movff	0+(_vectorIn+01h),(_PWMLSB)
  3175  006C22  C065  F06D         	line	34
  3176                           ;application.c: 34:         PWMMSB = vectorIn[0];
  3177                           	movff	(_vectorIn),(_PWMMSB)
  3178  006C26  C064  F06E         	line	35
  3179                           ;application.c: 35:         PWM = PWMMSB;
  3180                           	movff	(_PWMMSB),(_PWM)
  3181  006C2A  C06E  F067         	clrf	((_PWM+1))&0ffh
  3182  006C2E  6B68               	line	36
  3183                           	
  3184                           l2699:; BSR set to: 0
  3185  006C30                     
  3186                           ;application.c: 36:         PWM = PWM << 8;
  3187                           	movf	((_PWM))&0ffh,w
  3188  006C30  5167               	movwf	((_PWM+1))&0ffh
  3189  006C32  6F68               	clrf	((_PWM))&0ffh
  3190  006C34  6B67               	line	37
  3191                           	
  3192                           l2701:; BSR set to: 0
  3193  006C36                     
  3194                           ;application.c: 37:         PWM += PWMLSB;
  3195                           	movf	((_PWMLSB))&0ffh,w
  3196  006C36  516D               	addwf	((_PWM))&0ffh
  3197  006C38  2767               	movlw	0
  3198  006C3A  0E00               	addwfc	((_PWM+1))&0ffh
  3199  006C3C  2368               	line	38
  3200                           	
  3201                           l2703:; BSR set to: 0
  3202  006C3E                     
  3203                           ;application.c: 38:         analogWrite(4,PWM);
  3204                           	movff	(_PWM),(analogWrite@value)
  3205  006C3E  C067  F074         	movff	(_PWM+1),(analogWrite@value+1)
  3206  006C42  C068  F075         	movlw	(04h)&0ffh
  3207  006C46  0E04               	
  3208                           	call	_analogWrite
  3209  006C48  EC1B  F038         	line	39
  3210                           	
  3211                           l2705:
  3212  006C4C                     ;application.c: 39:         ADC = analogRead(0);
  3213                           	movlw	(0)&0ffh
  3214  006C4C  0E00               	
  3215                           	call	_analogRead
  3216  006C4E  EC1F  F034         	movff	0+?_analogRead,(_ADC)
  3217  006C52  C001  F06B         	movff	1+?_analogRead,(_ADC+1)
  3218  006C56  C002  F06C         	line	40
  3219                           	
  3220                           l2707:
  3221  006C5A                     ;application.c: 40:         ADCMSB = cocienteEntero(ADC,256);
  3222                           	movff	(_ADC),(c:cocienteEntero@numerator)
  3223  006C5A  C06B  F001         	movff	(_ADC+1),(c:cocienteEntero@numerator+1)
  3224  006C5E  C06C  F002         	movlw	high(0100h)
  3225  006C62  0E01               	movwf	((c:cocienteEntero@denominator+1)),c
  3226  006C64  6E04               	movlw	low(0100h)
  3227  006C66  0E00               	movwf	((c:cocienteEntero@denominator)),c
  3228  006C68  6E03               	call	_cocienteEntero	;wreg free
  3229  006C6A  EC10  F033         	movlb	0	; () banked
  3230  006C6E  0100               	movwf	((_ADCMSB))&0ffh
  3231  006C70  6F70               	line	41
  3232                           	
  3233                           l2709:; BSR set to: 0
  3234  006C72                     
  3235                           ;application.c: 41:         ADCLSB = residuo(ADC,256);
  3236                           	movff	(_ADC),(c:residuo@numerator)
  3237  006C72  C06B  F001         	movff	(_ADC+1),(c:residuo@numerator+1)
  3238  006C76  C06C  F002         	movlw	high(0100h)
  3239  006C7A  0E01               	movwf	((c:residuo@denominator+1)),c
  3240  006C7C  6E04               	movlw	low(0100h)
  3241  006C7E  0E00               	movwf	((c:residuo@denominator)),c
  3242  006C80  6E03               	call	_residuo	;wreg free
  3243  006C82  ECF5  F032         	movlb	0	; () banked
  3244  006C86  0100               	movwf	((_ADCLSB))&0ffh
  3245  006C88  6F6F               	line	42
  3246                           	
  3247                           l2711:; BSR set to: 0
  3248  006C8A                     
  3249                           ;application.c: 42:         vectorOut[0] = ADCMSB;
  3250                           	movff	(_ADCMSB),(_vectorOut)
  3251  006C8A  C070  F069         	line	43
  3252                           	
  3253                           l2713:; BSR set to: 0
  3254  006C8E                     
  3255                           ;application.c: 43:         vectorOut[1] = ADCLSB;
  3256                           	movff	(_ADCLSB),0+(_vectorOut+01h)
  3257  006C8E  C06F  F06A         	line	44
  3258                           	
  3259                           l2715:; BSR set to: 0
  3260  006C92                     
  3261                           ;application.c: 44:         for(int i=0;i<buffer;i++)
  3262                           	movlw	high(0)
  3263  006C92  0E00               	movwf	((loop@i_1229+1))&0ffh
  3264  006C94  6F7F               	movlw	low(0)
  3265  006C96  0E00               	movwf	((loop@i_1229))&0ffh
  3266  006C98  6F7E               	goto	l2721
  3267  006C9A  EF5D  F036         	
  3268                           l496:; BSR set to: 0
  3269  006C9E                     
  3270                           	line	46
  3271                           	
  3272                           l2717:; BSR set to: 0
  3273  006C9E                     
  3274                           ;application.c: 45:         {;application.c: 46:             SerialWrite(vectorOut[i]);

  3275                           	movlw	low(_vectorOut)
  3276  006C9E  0E69               	addwf	((loop@i_1229))&0ffh,w
  3277  006CA0  257E               	movwf	c:fsr2l
  3278  006CA2  6ED9               	movlw	high(_vectorOut)
  3279  006CA4  0E00               	addwfc	((loop@i_1229+1))&0ffh,w
  3280  006CA6  217F               	movwf	1+c:fsr2l
  3281  006CA8  6EDA               	movf	indf2,w
  3282  006CAA  50DF               	
  3283                           	call	_SerialWrite
  3284  006CAC  EC67  F032         	line	47
  3285                           	
  3286                           l2719:
  3287  006CB0                     ;application.c: 47:         }
  3288                           	movlb	0	; () banked
  3289  006CB0  0100               	infsnz	((loop@i_1229))&0ffh
  3290  006CB2  4B7E               	incf	((loop@i_1229+1))&0ffh
  3291  006CB4  2B7F               	goto	l2721
  3292  006CB6  EF5D  F036         	
  3293                           l495:; BSR set to: 0
  3294  006CBA                     
  3295                           	
  3296                           l2721:; BSR set to: 0
  3297  006CBA                     
  3298                           	movf	((_buffer))&0ffh,w
  3299  006CBA  5187               	movwf	(??_loop+0+0)&0ffh
  3300  006CBC  6F79               	clrf	(??_loop+0+0+1)&0ffh
  3301  006CBE  6B7A               
  3302                           		movf	(??_loop+0+0)&0ffh,w
  3303  006CC0  5179               	subwf	((loop@i_1229))&0ffh,w
  3304  006CC2  5D7E               	movf	((loop@i_1229+1))&0ffh,w
  3305  006CC4  517F               	xorlw	80h
  3306  006CC6  0A80               	movwf	(??_loop+2+0)&0ffh
  3307  006CC8  6F7B               	movf	(??_loop+0+1)&0ffh,w
  3308  006CCA  517A               	xorlw	80h
  3309  006CCC  0A80               	subwfb	(??_loop+2+0)&0ffh,w
  3310  006CCE  597B               	btfss	status,0
  3311  006CD0  A0D8               	goto	u2841
  3312  006CD2  EF6D  F036         	goto	u2840
  3313  006CD6  EF6F  F036         
  3314                           u2841:
  3315  006CDA                     	goto	l2717
  3316  006CDA  EF4F  F036         u2840:
  3317  006CDE                     	goto	l2723
  3318  006CDE  EF71  F036         	
  3319                           l497:; BSR set to: 0
  3320  006CE2                     
  3321                           	line	48
  3322                           	
  3323                           l2723:; BSR set to: 0
  3324  006CE2                     
  3325                           ;application.c: 48:         delay(100);
  3326                           	movlw	high(064h)
  3327  006CE2  0E00               	movwf	((c:delay@milis+1)),c
  3328  006CE4  6E02               	movlw	low(064h)
  3329  006CE6  0E64               	movwf	((c:delay@milis)),c
  3330  006CE8  6E01               	call	_delay	;wreg free
  3331  006CEA  ECCB  F033         	line	49
  3332                           ;application.c: 49:     }
  3333                           	goto	l499
  3334  006CEE  EF83  F036         	line	50
  3335                           ;application.c: 50:     else
  3336                           	
  3337                           l491:
  3338  006CF2                     	line	52
  3339                           	
  3340                           l2725:
  3341  006CF2                     ;application.c: 51:     {;application.c: 52:         analogWrite(4,0);
  3342                           	movlw	high(0)
  3343  006CF2  0E00               	movlb	0	; () banked
  3344  006CF4  0100               	movwf	((analogWrite@value+1))&0ffh
  3345  006CF6  6F75               	movlw	low(0)
  3346  006CF8  0E00               	movwf	((analogWrite@value))&0ffh
  3347  006CFA  6F74               	movlw	(04h)&0ffh
  3348  006CFC  0E04               	
  3349                           	call	_analogWrite
  3350  006CFE  EC1B  F038         	goto	l499
  3351  006D02  EF83  F036         	line	53
  3352                           ;application.c: 53:     }
  3353                           	
  3354                           l498:
  3355  006D06                     	line	54
  3356                           	
  3357                           l499:
  3358  006D06                     	return	;funcret
  3359  006D06  0012               	opt stack 0
  3360                           GLOBAL	__end_of_loop
  3361                           	__end_of_loop:
  3362  006D08                     	signat	_loop,89
  3363                           	global	_residuo
  3364                           
  3365 ;; *************** function _residuo *****************
  3366 ;; Defined at:
  3367 ;;		line 56 in file "application.c"
  3368 ;; Parameters:    Size  Location     Type
  3369 ;;  numerator       2    0[COMRAM] unsigned int 
  3370 ;;  denominator     2    2[COMRAM] unsigned int 
  3371 ;; Auto vars:     Size  Location     Type
  3372 ;;  temp1           2    4[COMRAM] unsigned int 
  3373 ;; Return value:  Size  Location     Type
  3374 ;;                  1    wreg      unsigned char 
  3375 ;; Registers used:
  3376 ;;		wreg, status,2, status,0
  3377 ;; Tracked objects:
  3378 ;;		On entry : 0/0
  3379 ;;		On exit  : 0/0
  3380 ;;		Unchanged: 0/0
  3381 ;; Data sizes:     COMRAM   BANK0   BANK1   BANK2   BANK3   BANK4   BANK5   BANK6   BANK7
  3382 ;;      Params:         4       0       0       0       0       0       0       0       0
  3383 ;;      Locals:         2       0       0       0       0       0       0       0       0
  3384 ;;      Temps:          0       0       0       0       0       0       0       0       0
  3385 ;;      Totals:         6       0       0       0       0       0       0       0       0
  3386 ;;Total ram usage:        6 bytes
  3387 ;; Hardware stack levels used:    1
  3388 ;; Hardware stack levels required when called:    1
  3389 ;; This function calls:
  3390 ;;		Nothing
  3391 ;; This function is called by:
  3392 ;;		_loop
  3393 ;; This function uses a non-reentrant model
  3394 ;;
  3395                           psect	text5,class=CODE,space=0,reloc=2,group=0
  3396                           	line	56
  3397                           global __ptext5
  3398                           __ptext5:
  3399  0065EA                     psect	text5
  3400                           	file	"application.c"
  3401                           	line	56
  3402                           	global	__size_of_residuo
  3403                           	__size_of_residuo	equ	__end_of_residuo-_residuo
  3404  0000                     	
  3405                           _residuo:
  3406  0065EA                     ;incstack = 0
  3407                           	opt	stack 28
  3408                           	line	58
  3409                           	
  3410                           l2661:
  3411  0065EA                     ;application.c: 56: char residuo(unsigned int numerator, unsigned int denominator);appli
                                 cation.c: 57: {;application.c: 58:  unsigned int temp1 = numerator;
  3412                           	movff	(c:residuo@numerator),(c:residuo@temp1)
  3413  0065EA  C001  F005         	movff	(c:residuo@numerator+1),(c:residuo@temp1+1)
  3414  0065EE  C002  F006         	line	59
  3415                           ;application.c: 59:  while(temp1 > denominator)
  3416                           	goto	l502
  3417  0065F2  EFFF  F032         	
  3418                           l503:
  3419  0065F6                     	line	61
  3420                           	
  3421                           l2663:
  3422  0065F6                     ;application.c: 60:  {;application.c: 61:   temp1 -= denominator;
  3423                           	movf	((c:residuo@denominator)),c,w
  3424  0065F6  5003               	subwf	((c:residuo@temp1)),c
  3425  0065F8  5E05               	movf	((c:residuo@denominator+1)),c,w
  3426  0065FA  5004               	subwfb	((c:residuo@temp1+1)),c
  3427  0065FC  5A06               
  3428                           	line	62
  3429                           ;application.c: 62:  }
  3430                           	
  3431                           l502:
  3432  0065FE                     	line	59
  3433                           ;application.c: 59:  while(temp1 > denominator)
  3434                           		movf	((c:residuo@temp1)),c,w
  3435  0065FE  5005               	subwf	((c:residuo@denominator)),c,w
  3436  006600  5C03               	movf	((c:residuo@temp1+1)),c,w
  3437  006602  5006               	subwfb	((c:residuo@denominator+1)),c,w
  3438  006604  5804               	btfss	status,0
  3439  006606  A0D8               	goto	u2811
  3440  006608  EF08  F033         	goto	u2810
  3441  00660C  EF0A  F033         
  3442                           u2811:
  3443  006610                     	goto	l2663
  3444  006610  EFFB  F032         u2810:
  3445  006614                     	goto	l2665
  3446  006614  EF0C  F033         	
  3447                           l504:
  3448  006618                     	line	63
  3449                           	
  3450                           l2665:
  3451  006618                     ;application.c: 63:  return temp1;
  3452                           	movf	((c:residuo@temp1)),c,w
  3453  006618  5005               	goto	l505
  3454  00661A  EF0F  F033         	
  3455                           l2667:
  3456  00661E                     	line	64
  3457                           	
  3458                           l505:
  3459  00661E                     	return	;funcret
  3460  00661E  0012               	opt stack 0
  3461                           GLOBAL	__end_of_residuo
  3462                           	__end_of_residuo:
  3463  006620                     	signat	_residuo,8313
  3464                           	global	_delay
  3465                           
  3466 ;; *************** function _delay *****************
  3467 ;; Defined at:
  3468 ;;		line 37 in file "main.c"
  3469 ;; Parameters:    Size  Location     Type
  3470 ;;  milis           2    0[COMRAM] const int 
  3471 ;; Auto vars:     Size  Location     Type
  3472 ;;  i               2    5[COMRAM] int 
  3473 ;;  j               2    3[COMRAM] int 
  3474 ;; Return value:  Size  Location     Type
  3475 ;;                  1    wreg      void 
  3476 ;; Registers used:
  3477 ;;		wreg, status,2, status,0
  3478 ;; Tracked objects:
  3479 ;;		On entry : 0/0
  3480 ;;		On exit  : 0/0
  3481 ;;		Unchanged: 0/0
  3482 ;; Data sizes:     COMRAM   BANK0   BANK1   BANK2   BANK3   BANK4   BANK5   BANK6   BANK7
  3483 ;;      Params:         2       0       0       0       0       0       0       0       0
  3484 ;;      Locals:         4       0       0       0       0       0       0       0       0
  3485 ;;      Temps:          1       0       0       0       0       0       0       0       0
  3486 ;;      Totals:         7       0       0       0       0       0       0       0       0
  3487 ;;Total ram usage:        7 bytes
  3488 ;; Hardware stack levels used:    1
  3489 ;; Hardware stack levels required when called:    1
  3490 ;; This function calls:
  3491 ;;		Nothing
  3492 ;; This function is called by:
  3493 ;;		_loop
  3494 ;;		_Frequency
  3495 ;; This function uses a non-reentrant model
  3496 ;;
  3497                           psect	text6,class=CODE,space=0,reloc=2,group=0
  3498                           	file	"main.c"
  3499                           	line	37
  3500                           global __ptext6
  3501                           __ptext6:
  3502  006796                     psect	text6
  3503                           	file	"main.c"
  3504                           	line	37
  3505                           	global	__size_of_delay
  3506                           	__size_of_delay	equ	__end_of_delay-_delay
  3507  0000                     	
  3508                           _delay:
  3509  006796                     ;incstack = 0
  3510                           	opt	stack 28
  3511                           	line	39
  3512                           	
  3513                           l2519:
  3514  006796                     ;main.c: 37: void delay(const int milis);main.c: 38: {;main.c: 39:     for(int j=0;j<mil
                                 is;j++)
  3515                           	movlw	high(0)
  3516  006796  0E00               	movwf	((c:delay@j+1)),c
  3517  006798  6E05               	movlw	low(0)
  3518  00679A  0E00               	movwf	((c:delay@j)),c
  3519  00679C  6E04               	
  3520                           l2521:
  3521  00679E                     		movf	((c:delay@milis)),c,w
  3522  00679E  5001               	subwf	((c:delay@j)),c,w
  3523  0067A0  5C04               	movf	((c:delay@j+1)),c,w
  3524  0067A2  5005               	xorlw	80h
  3525  0067A4  0A80               	movwf	(??_delay+0+0)&0ffh,c
  3526  0067A6  6E03               	movf	((c:delay@milis+1)),c,w
  3527  0067A8  5002               	xorlw	80h
  3528  0067AA  0A80               	subwfb	(??_delay+0+0)&0ffh,c,w
  3529  0067AC  5803               	btfss	status,0
  3530  0067AE  A0D8               	goto	u2431
  3531  0067B0  EFDC  F033         	goto	u2430
  3532  0067B4  EFDE  F033         
  3533                           u2431:
  3534  0067B8                     	goto	l2525
  3535  0067B8  EFE2  F033         u2430:
  3536  0067BC                     	goto	l176
  3537  0067BC  EF1E  F034         	
  3538                           l2523:
  3539  0067C0                     	goto	l176
  3540  0067C0  EF1E  F034         	
  3541                           l172:
  3542  0067C4                     	line	42
  3543                           	
  3544                           l2525:
  3545  0067C4                     ;main.c: 40:     {;main.c: 42:         for(int i=0;i<400;i++)
  3546                           	movlw	high(0)
  3547  0067C4  0E00               	movwf	((c:delay@i+1)),c
  3548  0067C6  6E07               	movlw	low(0)
  3549  0067C8  0E00               	movwf	((c:delay@i)),c
  3550  0067CA  6E06               	
  3551                           l2527:
  3552  0067CC                     	btfsc	((c:delay@i+1)),c,7
  3553  0067CC  BE07               	goto	u2441
  3554  0067CE  EFF2  F033         	movlw	144
  3555  0067D2  0E90               	subwf	 ((c:delay@i)),c,w
  3556  0067D4  5C06               	movlw	1
  3557  0067D6  0E01               	subwfb	((c:delay@i+1)),c,w
  3558  0067D8  5807               	btfss	status,0
  3559  0067DA  A0D8               	goto	u2441
  3560  0067DC  EFF2  F033         	goto	u2440
  3561  0067E0  EFF4  F033         
  3562                           u2441:
  3563  0067E4                     	goto	l174
  3564  0067E4  EFF8  F033         u2440:
  3565  0067E8                     	goto	l2535
  3566  0067E8  EF0B  F034         	
  3567                           l2529:
  3568  0067EC                     	goto	l2535
  3569  0067EC  EF0B  F034         	
  3570                           l174:
  3571  0067F0                     	line	44
  3572                           # 44 "main.c"
  3573                           NOP ;# 
  3574  0067F0  F000               psect	text6
  3575                           	line	45
  3576                           	
  3577                           l2531:
  3578  0067F2                     ;main.c: 45:         }
  3579                           	infsnz	((c:delay@i)),c
  3580  0067F2  4A06               	incf	((c:delay@i+1)),c
  3581  0067F4  2A07               	
  3582                           l2533:
  3583  0067F6                     	btfsc	((c:delay@i+1)),c,7
  3584  0067F6  BE07               	goto	u2451
  3585  0067F8  EF07  F034         	movlw	144
  3586  0067FC  0E90               	subwf	 ((c:delay@i)),c,w
  3587  0067FE  5C06               	movlw	1
  3588  006800  0E01               	subwfb	((c:delay@i+1)),c,w
  3589  006802  5807               	btfss	status,0
  3590  006804  A0D8               	goto	u2451
  3591  006806  EF07  F034         	goto	u2450
  3592  00680A  EF09  F034         
  3593                           u2451:
  3594  00680E                     	goto	l174
  3595  00680E  EFF8  F033         u2450:
  3596  006812                     	goto	l2535
  3597  006812  EF0B  F034         	
  3598                           l175:
  3599  006816                     	line	46
  3600                           	
  3601                           l2535:
  3602  006816                     ;main.c: 46:     }
  3603                           	infsnz	((c:delay@j)),c
  3604  006816  4A04               	incf	((c:delay@j+1)),c
  3605  006818  2A05               	
  3606                           l2537:
  3607  00681A                     		movf	((c:delay@milis)),c,w
  3608  00681A  5001               	subwf	((c:delay@j)),c,w
  3609  00681C  5C04               	movf	((c:delay@j+1)),c,w
  3610  00681E  5005               	xorlw	80h
  3611  006820  0A80               	movwf	(??_delay+0+0)&0ffh,c
  3612  006822  6E03               	movf	((c:delay@milis+1)),c,w
  3613  006824  5002               	xorlw	80h
  3614  006826  0A80               	subwfb	(??_delay+0+0)&0ffh,c,w
  3615  006828  5803               	btfss	status,0
  3616  00682A  A0D8               	goto	u2461
  3617  00682C  EF1A  F034         	goto	u2460
  3618  006830  EF1C  F034         
  3619                           u2461:
  3620  006834                     	goto	l2525
  3621  006834  EFE2  F033         u2460:
  3622  006838                     	goto	l176
  3623  006838  EF1E  F034         	
  3624                           l173:
  3625  00683C                     	line	47
  3626                           	
  3627                           l176:
  3628  00683C                     	return	;funcret
  3629  00683C  0012               	opt stack 0
  3630                           GLOBAL	__end_of_delay
  3631                           	__end_of_delay:
  3632  00683E                     	signat	_delay,4217
  3633                           	global	_cocienteEntero
  3634                           
  3635 ;; *************** function _cocienteEntero *****************
  3636 ;; Defined at:
  3637 ;;		line 66 in file "application.c"
  3638 ;; Parameters:    Size  Location     Type
  3639 ;;  numerator       2    0[COMRAM] unsigned int 
  3640 ;;  denominator     2    2[COMRAM] unsigned int 
  3641 ;; Auto vars:     Size  Location     Type
  3642 ;;  temp1           2    6[COMRAM] unsigned int 
  3643 ;;  cont            2    4[COMRAM] unsigned int 
  3644 ;; Return value:  Size  Location     Type
  3645 ;;                  1    wreg      unsigned char 
  3646 ;; Registers used:
  3647 ;;		wreg, status,2, status,0
  3648 ;; Tracked objects:
  3649 ;;		On entry : 0/0
  3650 ;;		On exit  : 0/0
  3651 ;;		Unchanged: 0/0
  3652 ;; Data sizes:     COMRAM   BANK0   BANK1   BANK2   BANK3   BANK4   BANK5   BANK6   BANK7
  3653 ;;      Params:         4       0       0       0       0       0       0       0       0
  3654 ;;      Locals:         4       0       0       0       0       0       0       0       0
  3655 ;;      Temps:          0       0       0       0       0       0       0       0       0
  3656 ;;      Totals:         8       0       0       0       0       0       0       0       0
  3657 ;;Total ram usage:        8 bytes
  3658 ;; Hardware stack levels used:    1
  3659 ;; Hardware stack levels required when called:    1
  3660 ;; This function calls:
  3661 ;;		Nothing
  3662 ;; This function is called by:
  3663 ;;		_loop
  3664 ;; This function uses a non-reentrant model
  3665 ;;
  3666                           psect	text7,class=CODE,space=0,reloc=2,group=0
  3667                           	file	"application.c"
  3668                           	line	66
  3669                           global __ptext7
  3670                           __ptext7:
  3671  006620                     psect	text7
  3672                           	file	"application.c"
  3673                           	line	66
  3674                           	global	__size_of_cocienteEntero
  3675                           	__size_of_cocienteEntero	equ	__end_of_cocienteEntero-_cocienteEntero
  3676  0000                     	
  3677                           _cocienteEntero:
  3678  006620                     ;incstack = 0
  3679                           	opt	stack 28
  3680                           	line	68
  3681                           	
  3682                           l2647:
  3683  006620                     ;application.c: 66: char cocienteEntero(unsigned int numerator, unsigned int denominator
                                 );application.c: 67: {;application.c: 68:  unsigned int cont = 0;
  3684                           	movlw	high(0)
  3685  006620  0E00               	movwf	((c:cocienteEntero@cont+1)),c
  3686  006622  6E06               	movlw	low(0)
  3687  006624  0E00               	movwf	((c:cocienteEntero@cont)),c
  3688  006626  6E05               	line	69
  3689                           	
  3690                           l2649:
  3691  006628                     ;application.c: 69:  unsigned int temp1 = numerator;
  3692                           	movff	(c:cocienteEntero@numerator),(c:cocienteEntero@temp1)
  3693  006628  C001  F007         	movff	(c:cocienteEntero@numerator+1),(c:cocienteEntero@temp1+1)
  3694  00662C  C002  F008         	line	70
  3695                           ;application.c: 70:  while (temp1 > denominator)
  3696                           	goto	l2655
  3697  006630  EF22  F033         	
  3698                           l509:
  3699  006634                     	line	72
  3700                           	
  3701                           l2651:
  3702  006634                     ;application.c: 71:  {;application.c: 72:   temp1 -= denominator;
  3703                           	movf	((c:cocienteEntero@denominator)),c,w
  3704  006634  5003               	subwf	((c:cocienteEntero@temp1)),c
  3705  006636  5E07               	movf	((c:cocienteEntero@denominator+1)),c,w
  3706  006638  5004               	subwfb	((c:cocienteEntero@temp1+1)),c
  3707  00663A  5A08               
  3708                           	line	73
  3709                           	
  3710                           l2653:
  3711  00663C                     ;application.c: 73:   cont++;
  3712                           	infsnz	((c:cocienteEntero@cont)),c
  3713  00663C  4A05               	incf	((c:cocienteEntero@cont+1)),c
  3714  00663E  2A06               	goto	l2655
  3715  006640  EF22  F033         	line	74
  3716                           ;application.c: 74:  }
  3717                           	
  3718                           l508:
  3719  006644                     	line	70
  3720                           	
  3721                           l2655:
  3722  006644                     ;application.c: 70:  while (temp1 > denominator)
  3723                           		movf	((c:cocienteEntero@temp1)),c,w
  3724  006644  5007               	subwf	((c:cocienteEntero@denominator)),c,w
  3725  006646  5C03               	movf	((c:cocienteEntero@temp1+1)),c,w
  3726  006648  5008               	subwfb	((c:cocienteEntero@denominator+1)),c,w
  3727  00664A  5804               	btfss	status,0
  3728  00664C  A0D8               	goto	u2801
  3729  00664E  EF2B  F033         	goto	u2800
  3730  006652  EF2D  F033         
  3731                           u2801:
  3732  006656                     	goto	l2651
  3733  006656  EF1A  F033         u2800:
  3734  00665A                     	goto	l2657
  3735  00665A  EF2F  F033         	
  3736                           l510:
  3737  00665E                     	line	75
  3738                           	
  3739                           l2657:
  3740  00665E                     ;application.c: 75:  return cont;
  3741                           	movf	((c:cocienteEntero@cont)),c,w
  3742  00665E  5005               	goto	l511
  3743  006660  EF32  F033         	
  3744                           l2659:
  3745  006664                     	line	76
  3746                           	
  3747                           l511:
  3748  006664                     	return	;funcret
  3749  006664  0012               	opt stack 0
  3750                           GLOBAL	__end_of_cocienteEntero
  3751                           	__end_of_cocienteEntero:
  3752  006666                     	signat	_cocienteEntero,8313
  3753                           	global	_analogWrite
  3754                           
  3755 ;; *************** function _analogWrite *****************
  3756 ;; Defined at:
  3757 ;;		line 340 in file "main.c"
  3758 ;; Parameters:    Size  Location     Type
  3759 ;;  pin             1    wreg     unsigned char 
  3760 ;;  value           2    0[BANK0 ] unsigned int 
  3761 ;; Auto vars:     Size  Location     Type
  3762 ;;  pin             1    4[BANK0 ] unsigned char 
  3763 ;; Return value:  Size  Location     Type
  3764 ;;                  1    wreg      void 
  3765 ;; Registers used:
  3766 ;;		wreg, status,2, status,0, prodl, prodh, cstack
  3767 ;; Tracked objects:
  3768 ;;		On entry : 0/0
  3769 ;;		On exit  : 0/0
  3770 ;;		Unchanged: 0/0
  3771 ;; Data sizes:     COMRAM   BANK0   BANK1   BANK2   BANK3   BANK4   BANK5   BANK6   BANK7
  3772 ;;      Params:         0       2       0       0       0       0       0       0       0
  3773 ;;      Locals:         0       1       0       0       0       0       0       0       0
  3774 ;;      Temps:          0       2       0       0       0       0       0       0       0
  3775 ;;      Totals:         0       5       0       0       0       0       0       0       0
  3776 ;;Total ram usage:        5 bytes
  3777 ;; Hardware stack levels used:    1
  3778 ;; Hardware stack levels required when called:    3
  3779 ;; This function calls:
  3780 ;;		_PWM_Max_Duty
  3781 ;;		___fldiv
  3782 ;;		___flmul
  3783 ;;		___fltol
  3784 ;;		___xxtofl
  3785 ;; This function is called by:
  3786 ;;		_loop
  3787 ;; This function uses a non-reentrant model
  3788 ;;
  3789                           psect	text8,class=CODE,space=0,reloc=2,group=0
  3790                           	file	"main.c"
  3791                           	line	340
  3792                           global __ptext8
  3793                           __ptext8:
  3794  007036                     psect	text8
  3795                           	file	"main.c"
  3796                           	line	340
  3797                           	global	__size_of_analogWrite
  3798                           	__size_of_analogWrite	equ	__end_of_analogWrite-_analogWrite
  3799  0000                     	
  3800                           _analogWrite:
  3801  007036                     ;incstack = 0
  3802                           	opt	stack 26
  3803                           ;analogWrite@pin stored from wreg
  3804                           	movlb	0	; () banked
  3805  007036  0100               	movwf	((analogWrite@pin))&0ffh
  3806  007038  6F78               	line	342
  3807                           	
  3808                           l2591:
  3809  00703A                     ;main.c: 340: void analogWrite(char pin,unsigned int value);main.c: 341: {;main.c: 342: 
                                     switch(pin)
  3810                           	goto	l2615
  3811  00703A  EF12  F039         	line	344
  3812                           ;main.c: 343:     {;main.c: 344:         case 4:
  3813                           	
  3814                           l301:
  3815  00703E                     	line	346
  3816                           	
  3817                           l2593:
  3818  00703E                     ;main.c: 346:             if(value <1024)
  3819                           		movlw	4
  3820  00703E  0E04               	movlb	0	; () banked
  3821  007040  0100               	subwf	 ((analogWrite@value+1))&0ffh,w
  3822  007042  5D75               	btfsc	status,0
  3823  007044  B0D8               	goto	u2741
  3824  007046  EF27  F038         	goto	u2740
  3825  00704A  EF29  F038         
  3826                           u2741:
  3827  00704E                     	goto	l306
  3828  00704E  EF28  F039         u2740:
  3829  007052                     	line	348
  3830                           	
  3831                           l2595:; BSR set to: 0
  3832  007052                     
  3833                           ;main.c: 347:             {;main.c: 348:                 value = ((float)value / 1023) *
                                  PWM_Max_Duty();
  3834                           	call	_PWM_Max_Duty	;wreg free
  3835  007052  EC33  F033         	movff	0+?_PWM_Max_Duty,(c:___xxtofl@val)
  3836  007056  C00F  F015         	movff	1+?_PWM_Max_Duty,(c:___xxtofl@val+1)
  3837  00705A  C010  F016         	movlw	0
  3838  00705E  0E00               	btfsc	((c:___xxtofl@val+1)),c,7
  3839  007060  BE16               	movlw	-1
  3840  007062  0EFF               	movwf	((c:___xxtofl@val+2)),c
  3841  007064  6E17               	movwf	((c:___xxtofl@val+3)),c
  3842  007066  6E18               	movlw	(01h)&0ffh
  3843  007068  0E01               	
  3844                           	call	___xxtofl
  3845  00706A  EC2D  F037         	movff	0+?___xxtofl,(c:___flmul@a)
  3846  00706E  C015  F040         	movff	1+?___xxtofl,(c:___flmul@a+1)
  3847  007072  C016  F041         	movff	2+?___xxtofl,(c:___flmul@a+2)
  3848  007076  C017  F042         	movff	3+?___xxtofl,(c:___flmul@a+3)
  3849  00707A  C018  F043         	
  3850                           	movlw	low(normalize32(0x447fc000))
  3851  00707E  0E00               	movwf	((c:___fldiv@a)),c
  3852  007080  6E27               	movlw	high(normalize32(0x447fc000))
  3853  007082  0EC0               	movwf	((c:___fldiv@a+1)),c
  3854  007084  6E28               	movlw	low highword(normalize32(0x447fc000))
  3855  007086  0E7F               	movwf	((c:___fldiv@a+2)),c
  3856  007088  6E29               	movlw	high highword(normalize32(0x447fc000))
  3857  00708A  0E44               	movwf	((c:___fldiv@a+3)),c
  3858  00708C  6E2A               	movff	(analogWrite@value),(c:___xxtofl@val)
  3859  00708E  C074  F015         	movff	(analogWrite@value+1),(c:___xxtofl@val+1)
  3860  007092  C075  F016         	clrf	((c:___xxtofl@val+2)),c
  3861  007096  6A17               	clrf	((c:___xxtofl@val+3)),c
  3862  007098  6A18               
  3863                           	movlw	(0)&0ffh
  3864  00709A  0E00               	
  3865                           	call	___xxtofl
  3866  00709C  EC2D  F037         	movff	0+?___xxtofl,(c:___fldiv@b)
  3867  0070A0  C015  F023         	movff	1+?___xxtofl,(c:___fldiv@b+1)
  3868  0070A4  C016  F024         	movff	2+?___xxtofl,(c:___fldiv@b+2)
  3869  0070A8  C017  F025         	movff	3+?___xxtofl,(c:___fldiv@b+3)
  3870  0070AC  C018  F026         	
  3871                           	call	___fldiv	;wreg free
  3872  0070B0  EC39  F03A         	movff	0+?___fldiv,(c:___flmul@b)
  3873  0070B4  C023  F03C         	movff	1+?___fldiv,(c:___flmul@b+1)
  3874  0070B8  C024  F03D         	movff	2+?___fldiv,(c:___flmul@b+2)
  3875  0070BC  C025  F03E         	movff	3+?___fldiv,(c:___flmul@b+3)
  3876  0070C0  C026  F03F         	
  3877                           	call	___flmul	;wreg free
  3878  0070C4  EC49  F03C         	movff	0+?___flmul,(c:___fltol@f1)
  3879  0070C8  C03C  F055         	movff	1+?___flmul,(c:___fltol@f1+1)
  3880  0070CC  C03D  F056         	movff	2+?___flmul,(c:___fltol@f1+2)
  3881  0070D0  C03E  F057         	movff	3+?___flmul,(c:___fltol@f1+3)
  3882  0070D4  C03F  F058         	
  3883                           	call	___fltol	;wreg free
  3884  0070D8  EC84  F036         	movff	0+?___fltol,(analogWrite@value)
  3885  0070DC  C055  F074         	movff	1+?___fltol,(analogWrite@value+1)
  3886  0070E0  C056  F075         	line	349
  3887                           	
  3888                           l2597:
  3889  0070E4                     ;main.c: 349:                 CCP1CONbits.DC1B1 = value & 2;
  3890                           	movff	(analogWrite@value),??_analogWrite+0+0
  3891  0070E4  C074  F076         	movlw	02h
  3892  0070E8  0E02               	movlb	0	; () banked
  3893  0070EA  0100               	andwf	(??_analogWrite+0+0)&0ffh
  3894  0070EC  1776               	swapf	(??_analogWrite+0+0)&0ffh
  3895  0070EE  3B76               	rlncf	(??_analogWrite+0+0)&0ffh
  3896  0070F0  4776               	movf	((c:4029)),c,w	;volatile
  3897  0070F2  50BD               	xorwf	(??_analogWrite+0+0)&0ffh,w
  3898  0070F4  1976               	andlw	not (((1<<1)-1)<<5)
  3899  0070F6  0BDF               	xorwf	(??_analogWrite+0+0)&0ffh,w
  3900  0070F8  1976               	movwf	((c:4029)),c	;volatile
  3901  0070FA  6EBD               	line	350
  3902                           	
  3903                           l2599:; BSR set to: 0
  3904  0070FC                     
  3905                           ;main.c: 350:                 CCP1CONbits.DC1B0 = value & 1;
  3906                           	movff	(analogWrite@value),??_analogWrite+0+0
  3907  0070FC  C074  F076         	movlw	01h
  3908  007100  0E01               	andwf	(??_analogWrite+0+0)&0ffh
  3909  007102  1776               	swapf	(??_analogWrite+0+0)&0ffh
  3910  007104  3B76               	movf	((c:4029)),c,w	;volatile
  3911  007106  50BD               	xorwf	(??_analogWrite+0+0)&0ffh,w
  3912  007108  1976               	andlw	not (((1<<1)-1)<<4)
  3913  00710A  0BEF               	xorwf	(??_analogWrite+0+0)&0ffh,w
  3914  00710C  1976               	movwf	((c:4029)),c	;volatile
  3915  00710E  6EBD               	line	351
  3916                           	
  3917                           l2601:; BSR set to: 0
  3918  007110                     
  3919                           ;main.c: 351:                 CCPR1L = value >> 2;
  3920                           	movff	(analogWrite@value),??_analogWrite+0+0
  3921  007110  C074  F076         	movff	(analogWrite@value+1),??_analogWrite+0+0+1
  3922  007114  C075  F077         	bcf	status,0
  3923  007118  90D8               	rrcf	(??_analogWrite+0+1)&0ffh
  3924  00711A  3377               	rrcf	(??_analogWrite+0+0)&0ffh
  3925  00711C  3376               	bcf	status,0
  3926  00711E  90D8               	rrcf	(??_analogWrite+0+1)&0ffh
  3927  007120  3377               	rrcf	(??_analogWrite+0+0)&0ffh
  3928  007122  3376               	movf	(??_analogWrite+0+0)&0ffh,w
  3929  007124  5176               	movwf	((c:4030)),c	;volatile
  3930  007126  6EBE               	goto	l306
  3931  007128  EF28  F039         	line	352
  3932                           ;main.c: 352:             }
  3933                           	
  3934                           l302:; BSR set to: 0
  3935  00712C                     
  3936                           	line	353
  3937                           ;main.c: 353:             break;
  3938                           	goto	l306
  3939  00712C  EF28  F039         	line	354
  3940                           ;main.c: 354:         case 3:
  3941                           	
  3942                           l304:; BSR set to: 0
  3943  007130                     
  3944                           	line	356
  3945                           	
  3946                           l2603:; BSR set to: 0
  3947  007130                     
  3948                           ;main.c: 356:             if(value <1024)
  3949                           		movlw	4
  3950  007130  0E04               	subwf	 ((analogWrite@value+1))&0ffh,w
  3951  007132  5D75               	btfsc	status,0
  3952  007134  B0D8               	goto	u2751
  3953  007136  EF9F  F038         	goto	u2750
  3954  00713A  EFA1  F038         
  3955                           u2751:
  3956  00713E                     	goto	l306
  3957  00713E  EF28  F039         u2750:
  3958  007142                     	line	358
  3959                           	
  3960                           l2605:; BSR set to: 0
  3961  007142                     
  3962                           ;main.c: 357:             {;main.c: 358:                 value = ((float)value / 1023) *
                                  PWM_Max_Duty();
  3963                           	call	_PWM_Max_Duty	;wreg free
  3964  007142  EC33  F033         	movff	0+?_PWM_Max_Duty,(c:___xxtofl@val)
  3965  007146  C00F  F015         	movff	1+?_PWM_Max_Duty,(c:___xxtofl@val+1)
  3966  00714A  C010  F016         	movlw	0
  3967  00714E  0E00               	btfsc	((c:___xxtofl@val+1)),c,7
  3968  007150  BE16               	movlw	-1
  3969  007152  0EFF               	movwf	((c:___xxtofl@val+2)),c
  3970  007154  6E17               	movwf	((c:___xxtofl@val+3)),c
  3971  007156  6E18               	movlw	(01h)&0ffh
  3972  007158  0E01               	
  3973                           	call	___xxtofl
  3974  00715A  EC2D  F037         	movff	0+?___xxtofl,(c:___flmul@a)
  3975  00715E  C015  F040         	movff	1+?___xxtofl,(c:___flmul@a+1)
  3976  007162  C016  F041         	movff	2+?___xxtofl,(c:___flmul@a+2)
  3977  007166  C017  F042         	movff	3+?___xxtofl,(c:___flmul@a+3)
  3978  00716A  C018  F043         	
  3979                           	movlw	low(normalize32(0x447fc000))
  3980  00716E  0E00               	movwf	((c:___fldiv@a)),c
  3981  007170  6E27               	movlw	high(normalize32(0x447fc000))
  3982  007172  0EC0               	movwf	((c:___fldiv@a+1)),c
  3983  007174  6E28               	movlw	low highword(normalize32(0x447fc000))
  3984  007176  0E7F               	movwf	((c:___fldiv@a+2)),c
  3985  007178  6E29               	movlw	high highword(normalize32(0x447fc000))
  3986  00717A  0E44               	movwf	((c:___fldiv@a+3)),c
  3987  00717C  6E2A               	movff	(analogWrite@value),(c:___xxtofl@val)
  3988  00717E  C074  F015         	movff	(analogWrite@value+1),(c:___xxtofl@val+1)
  3989  007182  C075  F016         	clrf	((c:___xxtofl@val+2)),c
  3990  007186  6A17               	clrf	((c:___xxtofl@val+3)),c
  3991  007188  6A18               
  3992                           	movlw	(0)&0ffh
  3993  00718A  0E00               	
  3994                           	call	___xxtofl
  3995  00718C  EC2D  F037         	movff	0+?___xxtofl,(c:___fldiv@b)
  3996  007190  C015  F023         	movff	1+?___xxtofl,(c:___fldiv@b+1)
  3997  007194  C016  F024         	movff	2+?___xxtofl,(c:___fldiv@b+2)
  3998  007198  C017  F025         	movff	3+?___xxtofl,(c:___fldiv@b+3)
  3999  00719C  C018  F026         	
  4000                           	call	___fldiv	;wreg free
  4001  0071A0  EC39  F03A         	movff	0+?___fldiv,(c:___flmul@b)
  4002  0071A4  C023  F03C         	movff	1+?___fldiv,(c:___flmul@b+1)
  4003  0071A8  C024  F03D         	movff	2+?___fldiv,(c:___flmul@b+2)
  4004  0071AC  C025  F03E         	movff	3+?___fldiv,(c:___flmul@b+3)
  4005  0071B0  C026  F03F         	
  4006                           	call	___flmul	;wreg free
  4007  0071B4  EC49  F03C         	movff	0+?___flmul,(c:___fltol@f1)
  4008  0071B8  C03C  F055         	movff	1+?___flmul,(c:___fltol@f1+1)
  4009  0071BC  C03D  F056         	movff	2+?___flmul,(c:___fltol@f1+2)
  4010  0071C0  C03E  F057         	movff	3+?___flmul,(c:___fltol@f1+3)
  4011  0071C4  C03F  F058         	
  4012                           	call	___fltol	;wreg free
  4013  0071C8  EC84  F036         	movff	0+?___fltol,(analogWrite@value)
  4014  0071CC  C055  F074         	movff	1+?___fltol,(analogWrite@value+1)
  4015  0071D0  C056  F075         	line	360
  4016                           	
  4017                           l2607:
  4018  0071D4                     ;main.c: 360:                 CCP2CONbits.DC2B1 = value & 2;
  4019                           	movff	(analogWrite@value),??_analogWrite+0+0
  4020  0071D4  C074  F076         	movlw	02h
  4021  0071D8  0E02               	movlb	0	; () banked
  4022  0071DA  0100               	andwf	(??_analogWrite+0+0)&0ffh
  4023  0071DC  1776               	swapf	(??_analogWrite+0+0)&0ffh
  4024  0071DE  3B76               	rlncf	(??_analogWrite+0+0)&0ffh
  4025  0071E0  4776               	movf	((c:4026)),c,w	;volatile
  4026  0071E2  50BA               	xorwf	(??_analogWrite+0+0)&0ffh,w
  4027  0071E4  1976               	andlw	not (((1<<1)-1)<<5)
  4028  0071E6  0BDF               	xorwf	(??_analogWrite+0+0)&0ffh,w
  4029  0071E8  1976               	movwf	((c:4026)),c	;volatile
  4030  0071EA  6EBA               	line	361
  4031                           	
  4032                           l2609:; BSR set to: 0
  4033  0071EC                     
  4034                           ;main.c: 361:                 CCP2CONbits.DC2B0 = value & 1;
  4035                           	movff	(analogWrite@value),??_analogWrite+0+0
  4036  0071EC  C074  F076         	movlw	01h
  4037  0071F0  0E01               	andwf	(??_analogWrite+0+0)&0ffh
  4038  0071F2  1776               	swapf	(??_analogWrite+0+0)&0ffh
  4039  0071F4  3B76               	movf	((c:4026)),c,w	;volatile
  4040  0071F6  50BA               	xorwf	(??_analogWrite+0+0)&0ffh,w
  4041  0071F8  1976               	andlw	not (((1<<1)-1)<<4)
  4042  0071FA  0BEF               	xorwf	(??_analogWrite+0+0)&0ffh,w
  4043  0071FC  1976               	movwf	((c:4026)),c	;volatile
  4044  0071FE  6EBA               	line	362
  4045                           	
  4046                           l2611:; BSR set to: 0
  4047  007200                     
  4048                           ;main.c: 362:                 CCPR2L = value >> 2;
  4049                           	movff	(analogWrite@value),??_analogWrite+0+0
  4050  007200  C074  F076         	movff	(analogWrite@value+1),??_analogWrite+0+0+1
  4051  007204  C075  F077         	bcf	status,0
  4052  007208  90D8               	rrcf	(??_analogWrite+0+1)&0ffh
  4053  00720A  3377               	rrcf	(??_analogWrite+0+0)&0ffh
  4054  00720C  3376               	bcf	status,0
  4055  00720E  90D8               	rrcf	(??_analogWrite+0+1)&0ffh
  4056  007210  3377               	rrcf	(??_analogWrite+0+0)&0ffh
  4057  007212  3376               	movf	(??_analogWrite+0+0)&0ffh,w
  4058  007214  5176               	movwf	((c:4027)),c	;volatile
  4059  007216  6EBB               	goto	l306
  4060  007218  EF28  F039         	line	363
  4061                           ;main.c: 363:             }
  4062                           	
  4063                           l305:; BSR set to: 0
  4064  00721C                     
  4065                           	line	364
  4066                           ;main.c: 364:             break;
  4067                           	goto	l306
  4068  00721C  EF28  F039         	line	365
  4069                           	
  4070                           l2613:; BSR set to: 0
  4071  007220                     
  4072                           ;main.c: 365:     }
  4073                           	goto	l306
  4074  007220  EF28  F039         	
  4075                           l300:; BSR set to: 0
  4076  007224                     
  4077                           	
  4078                           l2615:
  4079  007224                     	movlb	0	; () banked
  4080  007224  0100               	movf	((analogWrite@pin))&0ffh,w
  4081  007226  5178               	movwf	(??_analogWrite+0+0)&0ffh
  4082  007228  6F76               	clrf	(??_analogWrite+0+0+1)&0ffh
  4083  00722A  6B77               
  4084                           	; Switch on 2 bytes has been partitioned into a top level switch of size 1, and 1 sub-s
                                 witches
  4085                           ; Switch size 1, requested type "space"
  4086                           ; Number of cases is 1, Range of values is 0 to 0
  4087                           ; switch strategies available:
  4088                           ; Name         Instructions Cycles
  4089                           ; simple_byte            4     3 (average)
  4090                           ;	Chosen strategy is simple_byte
  4091                           
  4092                           	movf ??_analogWrite+0+1&0ffh,w
  4093  00722C  5177               	xorlw	0^0	; case 0
  4094  00722E  0A00               	skipnz
  4095  007230  B4D8               	goto	l3077
  4096  007232  EF1D  F039         	goto	l306
  4097  007236  EF28  F039         	
  4098                           l3077:; BSR set to: 0
  4099  00723A                     
  4100                           ; Switch size 1, requested type "space"
  4101                           ; Number of cases is 2, Range of values is 3 to 4
  4102                           ; switch strategies available:
  4103                           ; Name         Instructions Cycles
  4104                           ; simple_byte            7     4 (average)
  4105                           ;	Chosen strategy is simple_byte
  4106                           
  4107                           	movf ??_analogWrite+0+0&0ffh,w
  4108  00723A  5176               	xorlw	3^0	; case 3
  4109  00723C  0A03               	skipnz
  4110  00723E  B4D8               	goto	l2603
  4111  007240  EF98  F038         	xorlw	4^3	; case 4
  4112  007244  0A07               	skipnz
  4113  007246  B4D8               	goto	l2593
  4114  007248  EF1F  F038         	goto	l306
  4115  00724C  EF28  F039         
  4116                           	
  4117                           l303:; BSR set to: 0
  4118  007250                     
  4119                           	line	366
  4120                           	
  4121                           l306:; BSR set to: 0
  4122  007250                     
  4123                           	return	;funcret
  4124  007250  0012               	opt stack 0
  4125                           GLOBAL	__end_of_analogWrite
  4126                           	__end_of_analogWrite:
  4127  007252                     	signat	_analogWrite,8313
  4128                           	global	___xxtofl
  4129                           
  4130 ;; *************** function ___xxtofl *****************
  4131 ;; Defined at:
  4132 ;;		line 10 in file "C:\Program Files (x86)\Microchip\xc8\v2.00\pic\sources\c99\common\xxtofl.c"
  4133 ;; Parameters:    Size  Location     Type
  4134 ;;  sign            1    wreg     unsigned char 
  4135 ;;  val             4   20[COMRAM] long 
  4136 ;; Auto vars:     Size  Location     Type
  4137 ;;  sign            1   28[COMRAM] unsigned char 
  4138 ;;  arg             4   30[COMRAM] unsigned long 
  4139 ;;  exp             1   29[COMRAM] unsigned char 
  4140 ;; Return value:  Size  Location     Type
  4141 ;;                  4   20[COMRAM] unsigned char 
  4142 ;; Registers used:
  4143 ;;		wreg, status,2, status,0
  4144 ;; Tracked objects:
  4145 ;;		On entry : 0/0
  4146 ;;		On exit  : 0/0
  4147 ;;		Unchanged: 0/0
  4148 ;; Data sizes:     COMRAM   BANK0   BANK1   BANK2   BANK3   BANK4   BANK5   BANK6   BANK7
  4149 ;;      Params:         4       0       0       0       0       0       0       0       0
  4150 ;;      Locals:         6       0       0       0       0       0       0       0       0
  4151 ;;      Temps:          4       0       0       0       0       0       0       0       0
  4152 ;;      Totals:        14       0       0       0       0       0       0       0       0
  4153 ;;Total ram usage:       14 bytes
  4154 ;; Hardware stack levels used:    1
  4155 ;; Hardware stack levels required when called:    1
  4156 ;; This function calls:
  4157 ;;		Nothing
  4158 ;; This function is called by:
  4159 ;;		_analogWrite
  4160 ;;		_Time
  4161 ;;		_Frequency
  4162 ;; This function uses a non-reentrant model
  4163 ;;
  4164                           psect	text9,class=CODE,space=0,reloc=2,group=1
  4165                           	file	"C:\Program Files (x86)\Microchip\xc8\v2.00\pic\sources\c99\common\xxtofl.c"
  4166                           	line	10
  4167                           global __ptext9
  4168                           __ptext9:
  4169  006E5A                     psect	text9
  4170                           	file	"C:\Program Files (x86)\Microchip\xc8\v2.00\pic\sources\c99\common\xxtofl.c"
  4171                           	line	10
  4172                           	global	__size_of___xxtofl
  4173                           	__size_of___xxtofl	equ	__end_of___xxtofl-___xxtofl
  4174  0000                     	
  4175                           ___xxtofl:; BSR set to: 0
  4176  006E5A                     
  4177                           ;incstack = 0
  4178                           	opt	stack 27
  4179                           ;___xxtofl@sign stored from wreg
  4180                           	movwf	((c:___xxtofl@sign)),c
  4181  006E5A  6E1D               	line	15
  4182                           	
  4183                           l2451:
  4184  006E5C                     	movf	((c:___xxtofl@sign)),c,w
  4185  006E5C  501D               	btfsc	status,2
  4186  006E5E  B4D8               	goto	u2331
  4187  006E60  EF34  F037         	goto	u2330
  4188  006E64  EF36  F037         u2331:
  4189  006E68                     	goto	l1181
  4190  006E68  EF58  F037         u2330:
  4191  006E6C                     	
  4192                           l2453:
  4193  006E6C                     	btfsc	((c:___xxtofl@val+3)),c,7
  4194  006E6C  BE18               	goto	u2340
  4195  006E6E  EF3D  F037         	goto	u2341
  4196  006E72  EF3B  F037         
  4197                           u2341:
  4198  006E76                     	goto	l1181
  4199  006E76  EF58  F037         u2340:
  4200  006E7A                     	line	16
  4201                           	
  4202                           l2455:
  4203  006E7A                     	movff	(c:___xxtofl@val),??___xxtofl+0+0
  4204  006E7A  C015  F019         	movff	(c:___xxtofl@val+1),??___xxtofl+0+0+1
  4205  006E7E  C016  F01A         	movff	(c:___xxtofl@val+2),??___xxtofl+0+0+2
  4206  006E82  C017  F01B         	movff	(c:___xxtofl@val+3),??___xxtofl+0+0+3
  4207  006E86  C018  F01C         	comf	(??___xxtofl+0+0),c
  4208  006E8A  1E19               	comf	(??___xxtofl+0+1),c
  4209  006E8C  1E1A               	comf	(??___xxtofl+0+2),c
  4210  006E8E  1E1B               	comf	(??___xxtofl+0+3),c
  4211  006E90  1E1C               	incf	(??___xxtofl+0+0),c
  4212  006E92  2A19               	movlw	0
  4213  006E94  0E00               	addwfc	(??___xxtofl+0+1),c
  4214  006E96  221A               	addwfc	(??___xxtofl+0+2),c
  4215  006E98  221B               	addwfc	(??___xxtofl+0+3),c
  4216  006E9A  221C               	movff	??___xxtofl+0+0,(c:___xxtofl@arg)
  4217  006E9C  C019  F01F         	movff	??___xxtofl+0+1,(c:___xxtofl@arg+1)
  4218  006EA0  C01A  F020         	movff	??___xxtofl+0+2,(c:___xxtofl@arg+2)
  4219  006EA4  C01B  F021         	movff	??___xxtofl+0+3,(c:___xxtofl@arg+3)
  4220  006EA8  C01C  F022         	line	17
  4221                           	goto	l2457
  4222  006EAC  EF62  F037         	line	18
  4223                           	
  4224                           l1181:
  4225  006EB0                     	line	19
  4226                           	movff	(c:___xxtofl@val),(c:___xxtofl@arg)
  4227  006EB0  C015  F01F         	movff	(c:___xxtofl@val+1),(c:___xxtofl@arg+1)
  4228  006EB4  C016  F020         	movff	(c:___xxtofl@val+2),(c:___xxtofl@arg+2)
  4229  006EB8  C017  F021         	movff	(c:___xxtofl@val+3),(c:___xxtofl@arg+3)
  4230  006EBC  C018  F022         	goto	l2457
  4231  006EC0  EF62  F037         	line	20
  4232                           	
  4233                           l1182:
  4234  006EC4                     	line	21
  4235                           	
  4236                           l2457:
  4237  006EC4                     	movf	((c:___xxtofl@val)),c,w
  4238  006EC4  5015               iorwf	((c:___xxtofl@val+1)),c,w
  4239  006EC6  1016               iorwf	((c:___xxtofl@val+2)),c,w
  4240  006EC8  1017               iorwf	((c:___xxtofl@val+3)),c,w
  4241  006ECA  1018               	btfss	status,2
  4242  006ECC  A4D8               	goto	u2351
  4243  006ECE  EF6B  F037         	goto	u2350
  4244  006ED2  EF6D  F037         
  4245                           u2351:
  4246  006ED6                     	goto	l2463
  4247  006ED6  EF79  F037         u2350:
  4248  006EDA                     	line	22
  4249                           	
  4250                           l2459:
  4251  006EDA                     	movlw	low(normalize32(0x0))
  4252  006EDA  0E00               	movwf	((c:?___xxtofl)),c
  4253  006EDC  6E15               	movlw	high(normalize32(0x0))
  4254  006EDE  0E00               	movwf	((c:?___xxtofl+1)),c
  4255  006EE0  6E16               	movlw	low highword(normalize32(0x0))
  4256  006EE2  0E00               	movwf	((c:?___xxtofl+2)),c
  4257  006EE4  6E17               	movlw	high highword(normalize32(0x0))
  4258  006EE6  0E00               	movwf	((c:?___xxtofl+3)),c
  4259  006EE8  6E18               	goto	l1184
  4260  006EEA  EF1A  F038         	
  4261                           l2461:
  4262  006EEE                     	goto	l1184
  4263  006EEE  EF1A  F038         	
  4264                           l1183:
  4265  006EF2                     	line	23
  4266                           	
  4267                           l2463:
  4268  006EF2                     	movlw	low(096h)
  4269  006EF2  0E96               	movwf	((c:___xxtofl@exp)),c
  4270  006EF4  6E1E               	line	24
  4271                           	goto	l2467
  4272  006EF6  EF85  F037         	
  4273                           l1186:
  4274  006EFA                     	line	25
  4275                           	
  4276                           l2465:
  4277  006EFA                     	incf	((c:___xxtofl@exp)),c
  4278  006EFA  2A1E               	line	26
  4279                           	bcf	status,0
  4280  006EFC  90D8               	rrcf	((c:___xxtofl@arg+3)),c
  4281  006EFE  3222               	rrcf	((c:___xxtofl@arg+2)),c
  4282  006F00  3221               	rrcf	((c:___xxtofl@arg+1)),c
  4283  006F02  3220               	rrcf	((c:___xxtofl@arg)),c
  4284  006F04  321F               	goto	l2467
  4285  006F06  EF85  F037         	line	27
  4286                           	
  4287                           l1185:
  4288  006F0A                     	line	24
  4289                           	
  4290                           l2467:
  4291  006F0A                     	movlw	0
  4292  006F0A  0E00               	andwf	((c:___xxtofl@arg)),c,w
  4293  006F0C  141F               	movwf	(??___xxtofl+0+0)&0ffh,c
  4294  006F0E  6E19               	movlw	0
  4295  006F10  0E00               	andwf	((c:___xxtofl@arg+1)),c,w
  4296  006F12  1420               	movwf	1+(??___xxtofl+0+0)&0ffh,c
  4297  006F14  6E1A               	
  4298                           	movlw	0
  4299  006F16  0E00               	andwf	((c:___xxtofl@arg+2)),c,w
  4300  006F18  1421               	movwf	2+(??___xxtofl+0+0)&0ffh,c
  4301  006F1A  6E1B               	
  4302                           	movlw	0FEh
  4303  006F1C  0EFE               	andwf	((c:___xxtofl@arg+3)),c,w
  4304  006F1E  1422               	movwf	3+(??___xxtofl+0+0)&0ffh,c
  4305  006F20  6E1C               	movf	(??___xxtofl+0+0),c,w
  4306  006F22  5019               iorwf	(??___xxtofl+0+1),c,w
  4307  006F24  101A               iorwf	(??___xxtofl+0+2),c,w
  4308  006F26  101B               iorwf	(??___xxtofl+0+3),c,w
  4309  006F28  101C               	btfss	status,2
  4310  006F2A  A4D8               	goto	u2361
  4311  006F2C  EF9A  F037         	goto	u2360
  4312  006F30  EF9C  F037         
  4313                           u2361:
  4314  006F34                     	goto	l2465
  4315  006F34  EF7D  F037         u2360:
  4316  006F38                     	goto	l1188
  4317  006F38  EFAC  F037         	
  4318                           l1187:
  4319  006F3C                     	line	28
  4320                           	goto	l1188
  4321  006F3C  EFAC  F037         	
  4322                           l1189:
  4323  006F40                     	line	29
  4324                           	
  4325                           l2469:
  4326  006F40                     	incf	((c:___xxtofl@exp)),c
  4327  006F40  2A1E               	line	30
  4328                           	
  4329                           l2471:
  4330  006F42                     	movlw	low(01h)
  4331  006F42  0E01               	addwf	((c:___xxtofl@arg)),c
  4332  006F44  261F               	movlw	0
  4333  006F46  0E00               	addwfc	((c:___xxtofl@arg+1)),c
  4334  006F48  2220               	addwfc	((c:___xxtofl@arg+2)),c
  4335  006F4A  2221               	addwfc	((c:___xxtofl@arg+3)),c
  4336  006F4C  2222               	line	31
  4337                           	
  4338                           l2473:
  4339  006F4E                     	bcf	status,0
  4340  006F4E  90D8               	rrcf	((c:___xxtofl@arg+3)),c
  4341  006F50  3222               	rrcf	((c:___xxtofl@arg+2)),c
  4342  006F52  3221               	rrcf	((c:___xxtofl@arg+1)),c
  4343  006F54  3220               	rrcf	((c:___xxtofl@arg)),c
  4344  006F56  321F               	line	32
  4345                           	
  4346                           l1188:
  4347  006F58                     	line	28
  4348                           	movlw	0
  4349  006F58  0E00               	andwf	((c:___xxtofl@arg)),c,w
  4350  006F5A  141F               	movwf	(??___xxtofl+0+0)&0ffh,c
  4351  006F5C  6E19               	movlw	0
  4352  006F5E  0E00               	andwf	((c:___xxtofl@arg+1)),c,w
  4353  006F60  1420               	movwf	1+(??___xxtofl+0+0)&0ffh,c
  4354  006F62  6E1A               	
  4355                           	movlw	0
  4356  006F64  0E00               	andwf	((c:___xxtofl@arg+2)),c,w
  4357  006F66  1421               	movwf	2+(??___xxtofl+0+0)&0ffh,c
  4358  006F68  6E1B               	
  4359                           	movlw	0FFh
  4360  006F6A  0EFF               	andwf	((c:___xxtofl@arg+3)),c,w
  4361  006F6C  1422               	movwf	3+(??___xxtofl+0+0)&0ffh,c
  4362  006F6E  6E1C               	movf	(??___xxtofl+0+0),c,w
  4363  006F70  5019               iorwf	(??___xxtofl+0+1),c,w
  4364  006F72  101A               iorwf	(??___xxtofl+0+2),c,w
  4365  006F74  101B               iorwf	(??___xxtofl+0+3),c,w
  4366  006F76  101C               	btfss	status,2
  4367  006F78  A4D8               	goto	u2371
  4368  006F7A  EFC1  F037         	goto	u2370
  4369  006F7E  EFC3  F037         
  4370                           u2371:
  4371  006F82                     	goto	l2469
  4372  006F82  EFA0  F037         u2370:
  4373  006F86                     	goto	l2477
  4374  006F86  EFCF  F037         	
  4375                           l1190:
  4376  006F8A                     	line	33
  4377                           	goto	l2477
  4378  006F8A  EFCF  F037         	
  4379                           l1192:
  4380  006F8E                     	line	34
  4381                           	
  4382                           l2475:
  4383  006F8E                     	decf	((c:___xxtofl@exp)),c
  4384  006F8E  061E               	line	35
  4385                           	bcf	status,0
  4386  006F90  90D8               	rlcf	((c:___xxtofl@arg)),c
  4387  006F92  361F               	rlcf	((c:___xxtofl@arg+1)),c
  4388  006F94  3620               	rlcf	((c:___xxtofl@arg+2)),c
  4389  006F96  3621               	rlcf	((c:___xxtofl@arg+3)),c
  4390  006F98  3622               	goto	l2477
  4391  006F9A  EFCF  F037         	line	36
  4392                           	
  4393                           l1191:
  4394  006F9E                     	line	33
  4395                           	
  4396                           l2477:
  4397  006F9E                     	
  4398                           	btfsc	((c:___xxtofl@arg+2)),c,(23)&7
  4399  006F9E  BE21               	goto	u2381
  4400  006FA0  EFD4  F037         	goto	u2380
  4401  006FA4  EFD6  F037         u2381:
  4402  006FA8                     	goto	l1195
  4403  006FA8  EFE0  F037         u2380:
  4404  006FAC                     	
  4405                           l2479:
  4406  006FAC                     		movlw	02h-0
  4407  006FAC  0E02               	cpfslt	((c:___xxtofl@exp)),c
  4408  006FAE  601E               	goto	u2391
  4409  006FB0  EFDC  F037         	goto	u2390
  4410  006FB4  EFDE  F037         
  4411                           u2391:
  4412  006FB8                     	goto	l2475
  4413  006FB8  EFC7  F037         u2390:
  4414  006FBC                     	goto	l1195
  4415  006FBC  EFE0  F037         	
  4416                           l1194:
  4417  006FC0                     	
  4418                           l1195:
  4419  006FC0                     	line	37
  4420                           	
  4421                           	btfsc	((c:___xxtofl@exp)),c,(0)&7
  4422  006FC0  B01E               	goto	u2401
  4423  006FC2  EFE5  F037         	goto	u2400
  4424  006FC6  EFE7  F037         u2401:
  4425  006FCA                     	goto	l2483
  4426  006FCA  EFEA  F037         u2400:
  4427  006FCE                     	line	38
  4428                           	
  4429                           l2481:
  4430  006FCE                     	bcf	(0+(23/8)+(c:___xxtofl@arg)),c,(23)&7
  4431  006FCE  9E21               	goto	l2483
  4432  006FD0  EFEA  F037         	
  4433                           l1196:
  4434  006FD4                     	line	39
  4435                           	
  4436                           l2483:
  4437  006FD4                     	bcf status,0
  4438  006FD4  90D8               	rrcf	((c:___xxtofl@exp)),c
  4439  006FD6  321E               
  4440                           	line	40
  4441                           	
  4442                           l2485:
  4443  006FD8                     	movff	(c:___xxtofl@exp),??___xxtofl+0+0
  4444  006FD8  C01E  F019         	clrf	(??___xxtofl+0+0+1)&0ffh,c
  4445  006FDC  6A1A               	clrf	(??___xxtofl+0+0+2)&0ffh,c
  4446  006FDE  6A1B               	clrf	(??___xxtofl+0+0+3)&0ffh,c
  4447  006FE0  6A1C               	movff	??___xxtofl+0+0,??___xxtofl+0+3
  4448  006FE2  C019  F01C         	clrf	(??___xxtofl+0+2),c
  4449  006FE6  6A1B               	clrf	(??___xxtofl+0+1),c
  4450  006FE8  6A1A               	clrf	(??___xxtofl+0+0),c
  4451  006FEA  6A19               	movf	(??___xxtofl+0+0),c,w
  4452  006FEC  5019               	iorwf	((c:___xxtofl@arg)),c
  4453  006FEE  121F               	movf	(??___xxtofl+0+1),c,w
  4454  006FF0  501A               	iorwf	((c:___xxtofl@arg+1)),c
  4455  006FF2  1220               	movf	(??___xxtofl+0+2),c,w
  4456  006FF4  501B               	iorwf	((c:___xxtofl@arg+2)),c
  4457  006FF6  1221               	movf	(??___xxtofl+0+3),c,w
  4458  006FF8  501C               	iorwf	((c:___xxtofl@arg+3)),c
  4459  006FFA  1222               
  4460                           	line	41
  4461                           	
  4462                           l2487:
  4463  006FFC                     	movf	((c:___xxtofl@sign)),c,w
  4464  006FFC  501D               	btfsc	status,2
  4465  006FFE  B4D8               	goto	u2411
  4466  007000  EF04  F038         	goto	u2410
  4467  007004  EF06  F038         u2411:
  4468  007008                     	goto	l2493
  4469  007008  EF10  F038         u2410:
  4470  00700C                     	
  4471                           l2489:
  4472  00700C                     	btfsc	((c:___xxtofl@val+3)),c,7
  4473  00700C  BE18               	goto	u2420
  4474  00700E  EF0D  F038         	goto	u2421
  4475  007012  EF0B  F038         
  4476                           u2421:
  4477  007016                     	goto	l2493
  4478  007016  EF10  F038         u2420:
  4479  00701A                     	line	42
  4480                           	
  4481                           l2491:
  4482  00701A                     	bsf	(0+(31/8)+(c:___xxtofl@arg)),c,(31)&7
  4483  00701A  8E22               	goto	l2493
  4484  00701C  EF10  F038         	
  4485                           l1197:
  4486  007020                     	line	43
  4487                           	
  4488                           l2493:
  4489  007020                     	movff	(c:___xxtofl@arg),(c:?___xxtofl)
  4490  007020  C01F  F015         	movff	(c:___xxtofl@arg+1),(c:?___xxtofl+1)
  4491  007024  C020  F016         	movff	(c:___xxtofl@arg+2),(c:?___xxtofl+2)
  4492  007028  C021  F017         	movff	(c:___xxtofl@arg+3),(c:?___xxtofl+3)
  4493  00702C  C022  F018         	goto	l1184
  4494  007030  EF1A  F038         	
  4495                           l2495:
  4496  007034                     	line	44
  4497                           	
  4498                           l1184:
  4499  007034                     	return	;funcret
  4500  007034  0012               	opt stack 0
  4501                           GLOBAL	__end_of___xxtofl
  4502                           	__end_of___xxtofl:
  4503  007036                     	signat	___xxtofl,8316
  4504                           	global	___fltol
  4505                           
  4506 ;; *************** function ___fltol *****************
  4507 ;; Defined at:
  4508 ;;		line 43 in file "C:\Program Files (x86)\Microchip\xc8\v2.00\pic\sources\c99\common\fltol.c"
  4509 ;; Parameters:    Size  Location     Type
  4510 ;;  f1              4   84[COMRAM] unsigned char 
  4511 ;; Auto vars:     Size  Location     Type
  4512 ;;  exp1            1   93[COMRAM] unsigned char 
  4513 ;;  sign1           1   92[COMRAM] unsigned char 
  4514 ;; Return value:  Size  Location     Type
  4515 ;;                  4   84[COMRAM] long 
  4516 ;; Registers used:
  4517 ;;		wreg, status,2, status,0
  4518 ;; Tracked objects:
  4519 ;;		On entry : 0/0
  4520 ;;		On exit  : 0/0
  4521 ;;		Unchanged: 0/0
  4522 ;; Data sizes:     COMRAM   BANK0   BANK1   BANK2   BANK3   BANK4   BANK5   BANK6   BANK7
  4523 ;;      Params:         4       0       0       0       0       0       0       0       0
  4524 ;;      Locals:         2       0       0       0       0       0       0       0       0
  4525 ;;      Temps:          4       0       0       0       0       0       0       0       0
  4526 ;;      Totals:        10       0       0       0       0       0       0       0       0
  4527 ;;Total ram usage:       10 bytes
  4528 ;; Hardware stack levels used:    1
  4529 ;; Hardware stack levels required when called:    1
  4530 ;; This function calls:
  4531 ;;		Nothing
  4532 ;; This function is called by:
  4533 ;;		_analogWrite
  4534 ;; This function uses a non-reentrant model
  4535 ;;
  4536                           psect	text10,class=CODE,space=0,reloc=2,group=1
  4537                           	file	"C:\Program Files (x86)\Microchip\xc8\v2.00\pic\sources\c99\common\fltol.c"
  4538                           	line	43
  4539                           global __ptext10
  4540                           __ptext10:
  4541  006D08                     psect	text10
  4542                           	file	"C:\Program Files (x86)\Microchip\xc8\v2.00\pic\sources\c99\common\fltol.c"
  4543                           	line	43
  4544                           	global	__size_of___fltol
  4545                           	__size_of___fltol	equ	__end_of___fltol-___fltol
  4546  0000                     	
  4547                           ___fltol:
  4548  006D08                     ;incstack = 0
  4549                           	opt	stack 27
  4550                           	line	47
  4551                           	
  4552                           l2407:
  4553  006D08                     	rlcf	((c:___fltol@f1+2)),c,w
  4554  006D08  3457               	rlcf	((c:___fltol@f1+3)),c,w
  4555  006D0A  3458               	movwf	((c:___fltol@exp1)),c
  4556  006D0C  6E5E               	movf	((c:___fltol@exp1)),c,w
  4557  006D0E  505E               	btfss	status,2
  4558  006D10  A4D8               	goto	u2261
  4559  006D12  EF8D  F036         	goto	u2260
  4560  006D16  EF8F  F036         u2261:
  4561  006D1A                     	goto	l2413
  4562  006D1A  EF9B  F036         u2260:
  4563  006D1E                     	line	48
  4564                           	
  4565                           l2409:
  4566  006D1E                     	movlw	low(0)
  4567  006D1E  0E00               	movwf	((c:?___fltol)),c
  4568  006D20  6E55               	movlw	high(0)
  4569  006D22  0E00               	movwf	((c:?___fltol+1)),c
  4570  006D24  6E56               	movlw	low highword(0)
  4571  006D26  0E00               	movwf	((c:?___fltol+2)),c
  4572  006D28  6E57               	movlw	high highword(0)
  4573  006D2A  0E00               	movwf	((c:?___fltol+3)),c
  4574  006D2C  6E58               	goto	l823
  4575  006D2E  EF2C  F037         	
  4576                           l2411:
  4577  006D32                     	goto	l823
  4578  006D32  EF2C  F037         	
  4579                           l822:
  4580  006D36                     	line	49
  4581                           	
  4582                           l2413:
  4583  006D36                     	movff	(c:___fltol@f1),??___fltol+0+0
  4584  006D36  C055  F059         	movff	(c:___fltol@f1+1),??___fltol+0+0+1
  4585  006D3A  C056  F05A         	movff	(c:___fltol@f1+2),??___fltol+0+0+2
  4586  006D3E  C057  F05B         	movff	(c:___fltol@f1+3),??___fltol+0+0+3
  4587  006D42  C058  F05C         	movlw	01Fh+1
  4588  006D46  0E20               	goto	u2270
  4589  006D48  EFAB  F036         u2275:
  4590  006D4C                     	bcf	status,0
  4591  006D4C  90D8               	rrcf	(??___fltol+0+3),c
  4592  006D4E  325C               	rrcf	(??___fltol+0+2),c
  4593  006D50  325B               	rrcf	(??___fltol+0+1),c
  4594  006D52  325A               	rrcf	(??___fltol+0+0),c
  4595  006D54  3259               u2270:
  4596  006D56                     	decfsz	wreg
  4597  006D56  2EE8               	goto	u2275
  4598  006D58  EFA6  F036         	movf	(??___fltol+0+0),c,w
  4599  006D5C  5059               	movwf	((c:___fltol@sign1)),c
  4600  006D5E  6E5D               	line	50
  4601                           	
  4602                           l2415:
  4603  006D60                     	bsf	(0+(23/8)+(c:___fltol@f1)),c,(23)&7
  4604  006D60  8E57               	line	51
  4605                           	
  4606                           l2417:
  4607  006D62                     	movlw	0FFh
  4608  006D62  0EFF               	andwf	((c:___fltol@f1)),c
  4609  006D64  1655               	movlw	0FFh
  4610  006D66  0EFF               	andwf	((c:___fltol@f1+1)),c
  4611  006D68  1656               	movlw	0FFh
  4612  006D6A  0EFF               	andwf	((c:___fltol@f1+2)),c
  4613  006D6C  1657               	movlw	0
  4614  006D6E  0E00               	andwf	((c:___fltol@f1+3)),c
  4615  006D70  1658               	line	52
  4616                           	
  4617                           l2419:
  4618  006D72                     	movlw	(096h)&0ffh
  4619  006D72  0E96               	subwf	((c:___fltol@exp1)),c
  4620  006D74  5E5E               	line	53
  4621                           	
  4622                           l2421:
  4623  006D76                     	btfsc	((c:___fltol@exp1)),c,7
  4624  006D76  BE5E               	goto	u2280
  4625  006D78  EFC2  F036         	goto	u2281
  4626  006D7C  EFC0  F036         
  4627                           u2281:
  4628  006D80                     	goto	l2433
  4629  006D80  EFE6  F036         u2280:
  4630  006D84                     	line	54
  4631                           	
  4632                           l2423:
  4633  006D84                     		movf	((c:___fltol@exp1)),c,w
  4634  006D84  505E               	xorlw	80h
  4635  006D86  0A80               	addlw	-(80h^-23)
  4636  006D88  0F97               	btfsc	status,0
  4637  006D8A  B0D8               	goto	u2291
  4638  006D8C  EFCA  F036         	goto	u2290
  4639  006D90  EFCC  F036         
  4640                           u2291:
  4641  006D94                     	goto	l2429
  4642  006D94  EFDA  F036         u2290:
  4643  006D98                     	line	55
  4644                           	
  4645                           l2425:
  4646  006D98                     	movlw	low(0)
  4647  006D98  0E00               	movwf	((c:?___fltol)),c
  4648  006D9A  6E55               	movlw	high(0)
  4649  006D9C  0E00               	movwf	((c:?___fltol+1)),c
  4650  006D9E  6E56               	movlw	low highword(0)
  4651  006DA0  0E00               	movwf	((c:?___fltol+2)),c
  4652  006DA2  6E57               	movlw	high highword(0)
  4653  006DA4  0E00               	movwf	((c:?___fltol+3)),c
  4654  006DA6  6E58               	goto	l823
  4655  006DA8  EF2C  F037         	
  4656                           l2427:
  4657  006DAC                     	goto	l823
  4658  006DAC  EF2C  F037         	
  4659                           l825:
  4660  006DB0                     	goto	l2429
  4661  006DB0  EFDA  F036         	line	56
  4662                           	
  4663                           l826:
  4664  006DB4                     	line	57
  4665                           	
  4666                           l2429:
  4667  006DB4                     	bcf	status,0
  4668  006DB4  90D8               	rrcf	((c:___fltol@f1+3)),c
  4669  006DB6  3258               	rrcf	((c:___fltol@f1+2)),c
  4670  006DB8  3257               	rrcf	((c:___fltol@f1+1)),c
  4671  006DBA  3256               	rrcf	((c:___fltol@f1)),c
  4672  006DBC  3255               	
  4673                           l2431:
  4674  006DBE                     	incfsz	((c:___fltol@exp1)),c
  4675  006DBE  3E5E               	
  4676                           	goto	l2429
  4677  006DC0  EFDA  F036         	goto	l2443
  4678  006DC4  EF10  F037         	
  4679                           l827:
  4680  006DC8                     	line	59
  4681                           	goto	l2443
  4682  006DC8  EF10  F037         	
  4683                           l824:
  4684  006DCC                     	line	60
  4685                           	
  4686                           l2433:
  4687  006DCC                     		movlw	020h-1
  4688  006DCC  0E1F               	cpfsgt	((c:___fltol@exp1)),c
  4689  006DCE  645E               	goto	u2301
  4690  006DD0  EFEC  F036         	goto	u2300
  4691  006DD4  EFEE  F036         
  4692                           u2301:
  4693  006DD8                     	goto	l2441
  4694  006DD8  EF04  F037         u2300:
  4695  006DDC                     	line	61
  4696                           	
  4697                           l2435:
  4698  006DDC                     	movlw	low(0)
  4699  006DDC  0E00               	movwf	((c:?___fltol)),c
  4700  006DDE  6E55               	movlw	high(0)
  4701  006DE0  0E00               	movwf	((c:?___fltol+1)),c
  4702  006DE2  6E56               	movlw	low highword(0)
  4703  006DE4  0E00               	movwf	((c:?___fltol+2)),c
  4704  006DE6  6E57               	movlw	high highword(0)
  4705  006DE8  0E00               	movwf	((c:?___fltol+3)),c
  4706  006DEA  6E58               	goto	l823
  4707  006DEC  EF2C  F037         	
  4708                           l2437:
  4709  006DF0                     	goto	l823
  4710  006DF0  EF2C  F037         	
  4711                           l829:
  4712  006DF4                     	line	62
  4713                           	goto	l2441
  4714  006DF4  EF04  F037         	
  4715                           l831:
  4716  006DF8                     	line	63
  4717                           	
  4718                           l2439:
  4719  006DF8                     	bcf	status,0
  4720  006DF8  90D8               	rlcf	((c:___fltol@f1)),c
  4721  006DFA  3655               	rlcf	((c:___fltol@f1+1)),c
  4722  006DFC  3656               	rlcf	((c:___fltol@f1+2)),c
  4723  006DFE  3657               	rlcf	((c:___fltol@f1+3)),c
  4724  006E00  3658               	line	64
  4725                           	decf	((c:___fltol@exp1)),c
  4726  006E02  065E               	goto	l2441
  4727  006E04  EF04  F037         	line	65
  4728                           	
  4729                           l830:
  4730  006E08                     	line	62
  4731                           	
  4732                           l2441:
  4733  006E08                     	movf	((c:___fltol@exp1)),c,w
  4734  006E08  505E               	btfss	status,2
  4735  006E0A  A4D8               	goto	u2311
  4736  006E0C  EF0A  F037         	goto	u2310
  4737  006E10  EF0C  F037         u2311:
  4738  006E14                     	goto	l2439
  4739  006E14  EFFC  F036         u2310:
  4740  006E18                     	goto	l2443
  4741  006E18  EF10  F037         	
  4742                           l832:
  4743  006E1C                     	goto	l2443
  4744  006E1C  EF10  F037         	line	66
  4745                           	
  4746                           l828:
  4747  006E20                     	line	67
  4748                           	
  4749                           l2443:
  4750  006E20                     	movf	((c:___fltol@sign1)),c,w
  4751  006E20  505D               	btfsc	status,2
  4752  006E22  B4D8               	goto	u2321
  4753  006E24  EF16  F037         	goto	u2320
  4754  006E28  EF18  F037         u2321:
  4755  006E2C                     	goto	l2447
  4756  006E2C  EF22  F037         u2320:
  4757  006E30                     	line	68
  4758                           	
  4759                           l2445:
  4760  006E30                     	comf	((c:___fltol@f1+3)),c
  4761  006E30  1E58               	comf	((c:___fltol@f1+2)),c
  4762  006E32  1E57               	comf	((c:___fltol@f1+1)),c
  4763  006E34  1E56               	negf	((c:___fltol@f1)),c
  4764  006E36  6C55               	movlw	0
  4765  006E38  0E00               	addwfc	((c:___fltol@f1+1)),c
  4766  006E3A  2256               	addwfc	((c:___fltol@f1+2)),c
  4767  006E3C  2257               	addwfc	((c:___fltol@f1+3)),c
  4768  006E3E  2258               	goto	l2447
  4769  006E40  EF22  F037         	
  4770                           l833:
  4771  006E44                     	line	69
  4772                           	
  4773                           l2447:
  4774  006E44                     	movff	(c:___fltol@f1),(c:?___fltol)
  4775  006E44  C055  F055         	movff	(c:___fltol@f1+1),(c:?___fltol+1)
  4776  006E48  C056  F056         	movff	(c:___fltol@f1+2),(c:?___fltol+2)
  4777  006E4C  C057  F057         	movff	(c:___fltol@f1+3),(c:?___fltol+3)
  4778  006E50  C058  F058         	goto	l823
  4779  006E54  EF2C  F037         	
  4780                           l2449:
  4781  006E58                     	line	70
  4782                           	
  4783                           l823:
  4784  006E58                     	return	;funcret
  4785  006E58  0012               	opt stack 0
  4786                           GLOBAL	__end_of___fltol
  4787                           	__end_of___fltol:
  4788  006E5A                     	signat	___fltol,4220
  4789                           	global	___flmul
  4790                           
  4791 ;; *************** function ___flmul *****************
  4792 ;; Defined at:
  4793 ;;		line 8 in file "C:\Program Files (x86)\Microchip\xc8\v2.00\pic\sources\c99\common\sprcmul.c"
  4794 ;; Parameters:    Size  Location     Type
  4795 ;;  b               4   59[COMRAM] long 
  4796 ;;  a               4   63[COMRAM] long 
  4797 ;; Auto vars:     Size  Location     Type
  4798 ;;  prod            4   78[COMRAM] struct .
  4799 ;;  grs             4   72[COMRAM] unsigned long 
  4800 ;;  temp            2   82[COMRAM] struct .
  4801 ;;  bexp            1   77[COMRAM] unsigned char 
  4802 ;;  aexp            1   76[COMRAM] unsigned char 
  4803 ;;  sign            1   71[COMRAM] unsigned char 
  4804 ;; Return value:  Size  Location     Type
  4805 ;;                  4   59[COMRAM] unsigned char 
  4806 ;; Registers used:
  4807 ;;		wreg, status,2, status,0, prodl, prodh
  4808 ;; Tracked objects:
  4809 ;;		On entry : 0/0
  4810 ;;		On exit  : 0/0
  4811 ;;		Unchanged: 0/0
  4812 ;; Data sizes:     COMRAM   BANK0   BANK1   BANK2   BANK3   BANK4   BANK5   BANK6   BANK7
  4813 ;;      Params:         8       0       0       0       0       0       0       0       0
  4814 ;;      Locals:        13       0       0       0       0       0       0       0       0
  4815 ;;      Temps:          4       0       0       0       0       0       0       0       0
  4816 ;;      Totals:        25       0       0       0       0       0       0       0       0
  4817 ;;Total ram usage:       25 bytes
  4818 ;; Hardware stack levels used:    1
  4819 ;; Hardware stack levels required when called:    1
  4820 ;; This function calls:
  4821 ;;		Nothing
  4822 ;; This function is called by:
  4823 ;;		_analogWrite
  4824 ;;		_Time
  4825 ;;		_Frequency
  4826 ;;		_rescale
  4827 ;; This function uses a non-reentrant model
  4828 ;;
  4829                           psect	text11,class=CODE,space=0,reloc=2,group=1
  4830                           	file	"C:\Program Files (x86)\Microchip\xc8\v2.00\pic\sources\c99\common\sprcmul.c"
  4831                           	line	8
  4832                           global __ptext11
  4833                           __ptext11:
  4834  007892                     psect	text11
  4835                           	file	"C:\Program Files (x86)\Microchip\xc8\v2.00\pic\sources\c99\common\sprcmul.c"
  4836                           	line	8
  4837                           	global	__size_of___flmul
  4838                           	__size_of___flmul	equ	__end_of___flmul-___flmul
  4839  0000                     	
  4840                           ___flmul:
  4841  007892                     ;incstack = 0
  4842                           	opt	stack 27
  4843                           	line	17
  4844                           	
  4845                           l2277:
  4846  007892                     	movf	(0+((c:___flmul@b)+03h)),c,w
  4847  007892  503F               	andlw	low(080h)
  4848  007894  0B80               	movwf	((c:___flmul@sign)),c
  4849  007896  6E48               	line	18
  4850                           	movf	(0+((c:___flmul@b)+03h)),c,w
  4851  007898  503F               	addwf	(0+((c:___flmul@b)+03h)),c,w
  4852  00789A  243F               	movwf	((c:___flmul@bexp)),c
  4853  00789C  6E4E               	line	19
  4854                           	
  4855                           l2279:
  4856  00789E                     	
  4857                           	btfss	(0+((c:___flmul@b)+02h)),c,(7)&7
  4858  00789E  AE3E               	goto	u2071
  4859  0078A0  EF54  F03C         	goto	u2070
  4860  0078A4  EF56  F03C         u2071:
  4861  0078A8                     	goto	l2283
  4862  0078A8  EF59  F03C         u2070:
  4863  0078AC                     	line	20
  4864                           	
  4865                           l2281:
  4866  0078AC                     	bsf	(0+(0/8)+(c:___flmul@bexp)),c,(0)&7
  4867  0078AC  804E               	goto	l2283
  4868  0078AE  EF59  F03C         	line	21
  4869                           	
  4870                           l1133:
  4871  0078B2                     	line	24
  4872                           	
  4873                           l2283:
  4874  0078B2                     	movf	((c:___flmul@bexp)),c,w
  4875  0078B2  504E               	btfsc	status,2
  4876  0078B4  B4D8               	goto	u2081
  4877  0078B6  EF5F  F03C         	goto	u2080
  4878  0078BA  EF61  F03C         u2081:
  4879  0078BE                     	goto	l2291
  4880  0078BE  EF76  F03C         u2080:
  4881  0078C2                     	line	26
  4882                           	
  4883                           l2285:
  4884  0078C2                     		incf	((c:___flmul@bexp)),c,w
  4885  0078C2  284E               	btfss	status,2
  4886  0078C4  A4D8               	goto	u2091
  4887  0078C6  EF67  F03C         	goto	u2090
  4888  0078CA  EF69  F03C         
  4889                           u2091:
  4890  0078CE                     	goto	l2289
  4891  0078CE  EF73  F03C         u2090:
  4892  0078D2                     	line	28
  4893                           	
  4894                           l2287:
  4895  0078D2                     	movlw	low(normalize32(0x0))
  4896  0078D2  0E00               	movwf	((c:___flmul@b)),c
  4897  0078D4  6E3C               	movlw	high(normalize32(0x0))
  4898  0078D6  0E00               	movwf	((c:___flmul@b+1)),c
  4899  0078D8  6E3D               	movlw	low highword(normalize32(0x0))
  4900  0078DA  0E00               	movwf	((c:___flmul@b+2)),c
  4901  0078DC  6E3E               	movlw	high highword(normalize32(0x0))
  4902  0078DE  0E00               	movwf	((c:___flmul@b+3)),c
  4903  0078E0  6E3F               	goto	l2289
  4904  0078E2  EF73  F03C         	line	29
  4905                           	
  4906                           l1135:
  4907  0078E6                     	line	31
  4908                           	
  4909                           l2289:
  4910  0078E6                     	bsf	(0+(23/8)+(c:___flmul@b)),c,(23)&7
  4911  0078E6  8E3E               	line	33
  4912                           	goto	l2293
  4913  0078E8  EF80  F03C         	line	34
  4914                           	
  4915                           l1134:
  4916  0078EC                     	line	36
  4917                           	
  4918                           l2291:
  4919  0078EC                     	movlw	low(normalize32(0x0))
  4920  0078EC  0E00               	movwf	((c:___flmul@b)),c
  4921  0078EE  6E3C               	movlw	high(normalize32(0x0))
  4922  0078F0  0E00               	movwf	((c:___flmul@b+1)),c
  4923  0078F2  6E3D               	movlw	low highword(normalize32(0x0))
  4924  0078F4  0E00               	movwf	((c:___flmul@b+2)),c
  4925  0078F6  6E3E               	movlw	high highword(normalize32(0x0))
  4926  0078F8  0E00               	movwf	((c:___flmul@b+3)),c
  4927  0078FA  6E3F               	goto	l2293
  4928  0078FC  EF80  F03C         	line	37
  4929                           	
  4930                           l1136:
  4931  007900                     	line	39
  4932                           	
  4933                           l2293:
  4934  007900                     	movf	(0+((c:___flmul@a)+03h)),c,w
  4935  007900  5043               	andlw	low(080h)
  4936  007902  0B80               	xorwf	((c:___flmul@sign)),c
  4937  007904  1A48               	line	40
  4938                           	
  4939                           l2295:
  4940  007906                     	movf	(0+((c:___flmul@a)+03h)),c,w
  4941  007906  5043               	addwf	(0+((c:___flmul@a)+03h)),c,w
  4942  007908  2443               	movwf	((c:___flmul@aexp)),c
  4943  00790A  6E4D               	line	41
  4944                           	
  4945                           l2297:
  4946  00790C                     	
  4947                           	btfss	(0+((c:___flmul@a)+02h)),c,(7)&7
  4948  00790C  AE42               	goto	u2101
  4949  00790E  EF8B  F03C         	goto	u2100
  4950  007912  EF8D  F03C         u2101:
  4951  007916                     	goto	l2301
  4952  007916  EF90  F03C         u2100:
  4953  00791A                     	line	42
  4954                           	
  4955                           l2299:
  4956  00791A                     	bsf	(0+(0/8)+(c:___flmul@aexp)),c,(0)&7
  4957  00791A  804D               	goto	l2301
  4958  00791C  EF90  F03C         	line	43
  4959                           	
  4960                           l1137:
  4961  007920                     	line	45
  4962                           	
  4963                           l2301:
  4964  007920                     	movf	((c:___flmul@aexp)),c,w
  4965  007920  504D               	btfsc	status,2
  4966  007922  B4D8               	goto	u2111
  4967  007924  EF96  F03C         	goto	u2110
  4968  007928  EF98  F03C         u2111:
  4969  00792C                     	goto	l2309
  4970  00792C  EFAD  F03C         u2110:
  4971  007930                     	line	48
  4972                           	
  4973                           l2303:
  4974  007930                     		incf	((c:___flmul@aexp)),c,w
  4975  007930  284D               	btfss	status,2
  4976  007932  A4D8               	goto	u2121
  4977  007934  EF9E  F03C         	goto	u2120
  4978  007938  EFA0  F03C         
  4979                           u2121:
  4980  00793C                     	goto	l2307
  4981  00793C  EFAA  F03C         u2120:
  4982  007940                     	line	50
  4983                           	
  4984                           l2305:
  4985  007940                     	movlw	low(normalize32(0x0))
  4986  007940  0E00               	movwf	((c:___flmul@a)),c
  4987  007942  6E40               	movlw	high(normalize32(0x0))
  4988  007944  0E00               	movwf	((c:___flmul@a+1)),c
  4989  007946  6E41               	movlw	low highword(normalize32(0x0))
  4990  007948  0E00               	movwf	((c:___flmul@a+2)),c
  4991  00794A  6E42               	movlw	high highword(normalize32(0x0))
  4992  00794C  0E00               	movwf	((c:___flmul@a+3)),c
  4993  00794E  6E43               	goto	l2307
  4994  007950  EFAA  F03C         	line	51
  4995                           	
  4996                           l1139:
  4997  007954                     	line	53
  4998                           	
  4999                           l2307:
  5000  007954                     	bsf	(0+(23/8)+(c:___flmul@a)),c,(23)&7
  5001  007954  8E42               	line	54
  5002                           	goto	l1140
  5003  007956  EFB5  F03C         	line	55
  5004                           	
  5005                           l1138:
  5006  00795A                     	line	57
  5007                           	
  5008                           l2309:
  5009  00795A                     	movlw	low(normalize32(0x0))
  5010  00795A  0E00               	movwf	((c:___flmul@a)),c
  5011  00795C  6E40               	movlw	high(normalize32(0x0))
  5012  00795E  0E00               	movwf	((c:___flmul@a+1)),c
  5013  007960  6E41               	movlw	low highword(normalize32(0x0))
  5014  007962  0E00               	movwf	((c:___flmul@a+2)),c
  5015  007964  6E42               	movlw	high highword(normalize32(0x0))
  5016  007966  0E00               	movwf	((c:___flmul@a+3)),c
  5017  007968  6E43               	line	58
  5018                           	
  5019                           l1140:
  5020  00796A                     	line	65
  5021                           	movf	((c:___flmul@aexp)),c,w
  5022  00796A  504D               	btfsc	status,2
  5023  00796C  B4D8               	goto	u2131
  5024  00796E  EFBB  F03C         	goto	u2130
  5025  007972  EFBD  F03C         u2131:
  5026  007976                     	goto	l2313
  5027  007976  EFC7  F03C         u2130:
  5028  00797A                     	
  5029                           l2311:
  5030  00797A                     	movf	((c:___flmul@bexp)),c,w
  5031  00797A  504E               	btfss	status,2
  5032  00797C  A4D8               	goto	u2141
  5033  00797E  EFC3  F03C         	goto	u2140
  5034  007982  EFC5  F03C         u2141:
  5035  007986                     	goto	l2317
  5036  007986  EFD3  F03C         u2140:
  5037  00798A                     	goto	l2313
  5038  00798A  EFC7  F03C         	
  5039                           l1143:
  5040  00798E                     	line	66
  5041                           	
  5042                           l2313:
  5043  00798E                     	movlw	low(normalize32(0x0))
  5044  00798E  0E00               	movwf	((c:?___flmul)),c
  5045  007990  6E3C               	movlw	high(normalize32(0x0))
  5046  007992  0E00               	movwf	((c:?___flmul+1)),c
  5047  007994  6E3D               	movlw	low highword(normalize32(0x0))
  5048  007996  0E00               	movwf	((c:?___flmul+2)),c
  5049  007998  6E3E               	movlw	high highword(normalize32(0x0))
  5050  00799A  0E00               	movwf	((c:?___flmul+3)),c
  5051  00799C  6E3F               	goto	l1144
  5052  00799E  EF7F  F03E         	
  5053                           l2315:
  5054  0079A2                     	goto	l1144
  5055  0079A2  EF7F  F03E         	line	67
  5056                           	
  5057                           l1141:
  5058  0079A6                     	line	95
  5059                           	
  5060                           l2317:
  5061  0079A6                     	movf	(0+((c:___flmul@a)+02h)),c,w
  5062  0079A6  5042               	mulwf	((c:___flmul@b)),c
  5063  0079A8  023C               	movff	prodl,(c:___flmul@temp)
  5064  0079AA  CFF3 F053          	movff	prodh,(c:___flmul@temp+1)
  5065  0079AE  CFF4 F054          	line	96
  5066                           	
  5067                           l2319:
  5068  0079B2                     	movf	((c:___flmul@temp)),c,w
  5069  0079B2  5053               	movwf	((c:___flmul@grs)),c
  5070  0079B4  6E49               	clrf	((c:___flmul@grs+1)),c
  5071  0079B6  6A4A               	clrf	((c:___flmul@grs+2)),c
  5072  0079B8  6A4B               	clrf	((c:___flmul@grs+3)),c
  5073  0079BA  6A4C               
  5074                           	line	97
  5075                           	
  5076                           l2321:
  5077  0079BC                     	movf	(0+((c:___flmul@temp)+01h)),c,w
  5078  0079BC  5054               	movwf	((c:___flmul@prod)),c
  5079  0079BE  6E4F               	clrf	((c:___flmul@prod+1)),c
  5080  0079C0  6A50               	clrf	((c:___flmul@prod+2)),c
  5081  0079C2  6A51               	clrf	((c:___flmul@prod+3)),c
  5082  0079C4  6A52               
  5083                           	line	98
  5084                           	movf	(0+((c:___flmul@a)+01h)),c,w
  5085  0079C6  5041               	mulwf	(0+((c:___flmul@b)+01h)),c
  5086  0079C8  023D               	movff	prodl,(c:___flmul@temp)
  5087  0079CA  CFF3 F053          	movff	prodh,(c:___flmul@temp+1)
  5088  0079CE  CFF4 F054          	line	99
  5089                           	
  5090                           l2323:
  5091  0079D2                     	movf	((c:___flmul@temp)),c,w
  5092  0079D2  5053               	addwf	((c:___flmul@grs)),c
  5093  0079D4  2649               	movlw	0
  5094  0079D6  0E00               	addwfc	((c:___flmul@grs+1)),c
  5095  0079D8  224A               	addwfc	((c:___flmul@grs+2)),c
  5096  0079DA  224B               	addwfc	((c:___flmul@grs+3)),c
  5097  0079DC  224C               	line	100
  5098                           	
  5099                           l2325:
  5100  0079DE                     	movf	(0+((c:___flmul@temp)+01h)),c,w
  5101  0079DE  5054               	addwf	((c:___flmul@prod)),c
  5102  0079E0  264F               	movlw	0
  5103  0079E2  0E00               	addwfc	((c:___flmul@prod+1)),c
  5104  0079E4  2250               	addwfc	((c:___flmul@prod+2)),c
  5105  0079E6  2251               	addwfc	((c:___flmul@prod+3)),c
  5106  0079E8  2252               	line	101
  5107                           	movf	((c:___flmul@a)),c,w
  5108  0079EA  5040               	mulwf	(0+((c:___flmul@b)+02h)),c
  5109  0079EC  023E               	movff	prodl,(c:___flmul@temp)
  5110  0079EE  CFF3 F053          	movff	prodh,(c:___flmul@temp+1)
  5111  0079F2  CFF4 F054          	line	102
  5112                           	
  5113                           l2327:
  5114  0079F6                     	movf	((c:___flmul@temp)),c,w
  5115  0079F6  5053               	addwf	((c:___flmul@grs)),c
  5116  0079F8  2649               	movlw	0
  5117  0079FA  0E00               	addwfc	((c:___flmul@grs+1)),c
  5118  0079FC  224A               	addwfc	((c:___flmul@grs+2)),c
  5119  0079FE  224B               	addwfc	((c:___flmul@grs+3)),c
  5120  007A00  224C               	line	103
  5121                           	
  5122                           l2329:
  5123  007A02                     	movf	(0+((c:___flmul@temp)+01h)),c,w
  5124  007A02  5054               	addwf	((c:___flmul@prod)),c
  5125  007A04  264F               	movlw	0
  5126  007A06  0E00               	addwfc	((c:___flmul@prod+1)),c
  5127  007A08  2250               	addwfc	((c:___flmul@prod+2)),c
  5128  007A0A  2251               	addwfc	((c:___flmul@prod+3)),c
  5129  007A0C  2252               	line	104
  5130                           	
  5131                           l2331:
  5132  007A0E                     	movff	(c:___flmul@grs+2),(c:___flmul@grs+3)
  5133  007A0E  C04B  F04C         	movff	(c:___flmul@grs+1),(c:___flmul@grs+2)
  5134  007A12  C04A  F04B         	movff	(c:___flmul@grs),(c:___flmul@grs+1)
  5135  007A16  C049  F04A         	clrf	((c:___flmul@grs)),c
  5136  007A1A  6A49               	line	105
  5137                           	
  5138                           l2333:
  5139  007A1C                     	movf	((c:___flmul@a)),c,w
  5140  007A1C  5040               	mulwf	(0+((c:___flmul@b)+01h)),c
  5141  007A1E  023D               	movff	prodl,(c:___flmul@temp)
  5142  007A20  CFF3 F053          	movff	prodh,(c:___flmul@temp+1)
  5143  007A24  CFF4 F054          	line	106
  5144                           	
  5145                           l2335:
  5146  007A28                     	movf	((c:___flmul@temp)),c,w
  5147  007A28  5053               	addwf	((c:___flmul@grs)),c
  5148  007A2A  2649               	movf	((c:___flmul@temp+1)),c,w
  5149  007A2C  5054               	addwfc	((c:___flmul@grs+1)),c
  5150  007A2E  224A               	movlw	0
  5151  007A30  0E00               	addwfc	((c:___flmul@grs+2)),c
  5152  007A32  224B               	movlw	0
  5153  007A34  0E00               	addwfc	((c:___flmul@grs+3)),c
  5154  007A36  224C               
  5155                           	line	107
  5156                           	
  5157                           l2337:
  5158  007A38                     	movf	(0+((c:___flmul@a)+01h)),c,w
  5159  007A38  5041               	mulwf	((c:___flmul@b)),c
  5160  007A3A  023C               	movff	prodl,(c:___flmul@temp)
  5161  007A3C  CFF3 F053          	movff	prodh,(c:___flmul@temp+1)
  5162  007A40  CFF4 F054          	line	108
  5163                           	
  5164                           l2339:
  5165  007A44                     	movf	((c:___flmul@temp)),c,w
  5166  007A44  5053               	addwf	((c:___flmul@grs)),c
  5167  007A46  2649               	movf	((c:___flmul@temp+1)),c,w
  5168  007A48  5054               	addwfc	((c:___flmul@grs+1)),c
  5169  007A4A  224A               	movlw	0
  5170  007A4C  0E00               	addwfc	((c:___flmul@grs+2)),c
  5171  007A4E  224B               	movlw	0
  5172  007A50  0E00               	addwfc	((c:___flmul@grs+3)),c
  5173  007A52  224C               
  5174                           	line	109
  5175                           	
  5176                           l2341:
  5177  007A54                     	movff	(c:___flmul@grs+2),(c:___flmul@grs+3)
  5178  007A54  C04B  F04C         	movff	(c:___flmul@grs+1),(c:___flmul@grs+2)
  5179  007A58  C04A  F04B         	movff	(c:___flmul@grs),(c:___flmul@grs+1)
  5180  007A5C  C049  F04A         	clrf	((c:___flmul@grs)),c
  5181  007A60  6A49               	line	110
  5182                           	movf	((c:___flmul@a)),c,w
  5183  007A62  5040               	mulwf	((c:___flmul@b)),c
  5184  007A64  023C               	movff	prodl,(c:___flmul@temp)
  5185  007A66  CFF3 F053          	movff	prodh,(c:___flmul@temp+1)
  5186  007A6A  CFF4 F054          	line	111
  5187                           	
  5188                           l2343:
  5189  007A6E                     	movf	((c:___flmul@temp)),c,w
  5190  007A6E  5053               	addwf	((c:___flmul@grs)),c
  5191  007A70  2649               	movf	((c:___flmul@temp+1)),c,w
  5192  007A72  5054               	addwfc	((c:___flmul@grs+1)),c
  5193  007A74  224A               	movlw	0
  5194  007A76  0E00               	addwfc	((c:___flmul@grs+2)),c
  5195  007A78  224B               	movlw	0
  5196  007A7A  0E00               	addwfc	((c:___flmul@grs+3)),c
  5197  007A7C  224C               
  5198                           	line	112
  5199                           	
  5200                           l2345:
  5201  007A7E                     	movf	(0+((c:___flmul@a)+02h)),c,w
  5202  007A7E  5042               	mulwf	(0+((c:___flmul@b)+01h)),c
  5203  007A80  023D               	movff	prodl,(c:___flmul@temp)
  5204  007A82  CFF3 F053          	movff	prodh,(c:___flmul@temp+1)
  5205  007A86  CFF4 F054          	line	113
  5206                           	movf	((c:___flmul@temp)),c,w
  5207  007A8A  5053               	addwf	((c:___flmul@prod)),c
  5208  007A8C  264F               	movf	((c:___flmul@temp+1)),c,w
  5209  007A8E  5054               	addwfc	((c:___flmul@prod+1)),c
  5210  007A90  2250               	movlw	0
  5211  007A92  0E00               	addwfc	((c:___flmul@prod+2)),c
  5212  007A94  2251               	movlw	0
  5213  007A96  0E00               	addwfc	((c:___flmul@prod+3)),c
  5214  007A98  2252               
  5215                           	line	114
  5216                           	
  5217                           l2347:
  5218  007A9A                     	movf	(0+((c:___flmul@a)+01h)),c,w
  5219  007A9A  5041               	mulwf	(0+((c:___flmul@b)+02h)),c
  5220  007A9C  023E               	movff	prodl,(c:___flmul@temp)
  5221  007A9E  CFF3 F053          	movff	prodh,(c:___flmul@temp+1)
  5222  007AA2  CFF4 F054          	line	115
  5223                           	
  5224                           l2349:
  5225  007AA6                     	movf	((c:___flmul@temp)),c,w
  5226  007AA6  5053               	addwf	((c:___flmul@prod)),c
  5227  007AA8  264F               	movf	((c:___flmul@temp+1)),c,w
  5228  007AAA  5054               	addwfc	((c:___flmul@prod+1)),c
  5229  007AAC  2250               	movlw	0
  5230  007AAE  0E00               	addwfc	((c:___flmul@prod+2)),c
  5231  007AB0  2251               	movlw	0
  5232  007AB2  0E00               	addwfc	((c:___flmul@prod+3)),c
  5233  007AB4  2252               
  5234                           	line	116
  5235                           	movf	(0+((c:___flmul@a)+02h)),c,w
  5236  007AB6  5042               	mulwf	(0+((c:___flmul@b)+02h)),c
  5237  007AB8  023E               	movff	prodl,(c:___flmul@temp)
  5238  007ABA  CFF3 F053          	movff	prodh,(c:___flmul@temp+1)
  5239  007ABE  CFF4 F054          	line	117
  5240                           	
  5241                           l2351:
  5242  007AC2                     	movf	((c:___flmul@temp)),c,w
  5243  007AC2  5053               	movwf	(??___flmul+0+0)&0ffh,c
  5244  007AC4  6E44               	movf	((c:___flmul@temp+1)),c,w
  5245  007AC6  5054               	movwf	1+(??___flmul+0+0)&0ffh,c
  5246  007AC8  6E45               	
  5247                           	clrf	2+(??___flmul+0+0)&0ffh,c
  5248  007ACA  6A46               	
  5249                           	clrf	3+(??___flmul+0+0)&0ffh,c
  5250  007ACC  6A47               	movff	??___flmul+0+2,??___flmul+0+3
  5251  007ACE  C046  F047         	movff	??___flmul+0+1,??___flmul+0+2
  5252  007AD2  C045  F046         	movff	??___flmul+0+0,??___flmul+0+1
  5253  007AD6  C044  F045         	clrf	(??___flmul+0+0),c
  5254  007ADA  6A44               	movf	(??___flmul+0+0),c,w
  5255  007ADC  5044               	addwf	((c:___flmul@prod)),c
  5256  007ADE  264F               	movf	(??___flmul+0+1),c,w
  5257  007AE0  5045               	addwfc	((c:___flmul@prod+1)),c
  5258  007AE2  2250               	movf	(??___flmul+0+2),c,w
  5259  007AE4  5046               	addwfc	((c:___flmul@prod+2)),c
  5260  007AE6  2251               	movf	(??___flmul+0+3),c,w
  5261  007AE8  5047               	addwfc	((c:___flmul@prod+3)),c
  5262  007AEA  2252               
  5263                           	line	145
  5264                           	
  5265                           l2353:
  5266  007AEC                     	movff	(c:___flmul@grs),??___flmul+0+0
  5267  007AEC  C049  F044         	movff	(c:___flmul@grs+1),??___flmul+0+0+1
  5268  007AF0  C04A  F045         	movff	(c:___flmul@grs+2),??___flmul+0+0+2
  5269  007AF4  C04B  F046         	movff	(c:___flmul@grs+3),??___flmul+0+0+3
  5270  007AF8  C04C  F047         	movlw	018h+1
  5271  007AFC  0E19               	goto	u2150
  5272  007AFE  EF86  F03D         u2155:
  5273  007B02                     	bcf	status,0
  5274  007B02  90D8               	rrcf	(??___flmul+0+3),c
  5275  007B04  3247               	rrcf	(??___flmul+0+2),c
  5276  007B06  3246               	rrcf	(??___flmul+0+1),c
  5277  007B08  3245               	rrcf	(??___flmul+0+0),c
  5278  007B0A  3244               u2150:
  5279  007B0C                     	decfsz	wreg
  5280  007B0C  2EE8               	goto	u2155
  5281  007B0E  EF81  F03D         	movf	(??___flmul+0+0),c,w
  5282  007B12  5044               	addwf	((c:___flmul@prod)),c
  5283  007B14  264F               	movf	(??___flmul+0+1),c,w
  5284  007B16  5045               	addwfc	((c:___flmul@prod+1)),c
  5285  007B18  2250               	movf	(??___flmul+0+2),c,w
  5286  007B1A  5046               	addwfc	((c:___flmul@prod+2)),c
  5287  007B1C  2251               	movf	(??___flmul+0+3),c,w
  5288  007B1E  5047               	addwfc	((c:___flmul@prod+3)),c
  5289  007B20  2252               
  5290                           	line	146
  5291                           	
  5292                           l2355:
  5293  007B22                     	movff	(c:___flmul@grs+2),(c:___flmul@grs+3)
  5294  007B22  C04B  F04C         	movff	(c:___flmul@grs+1),(c:___flmul@grs+2)
  5295  007B26  C04A  F04B         	movff	(c:___flmul@grs),(c:___flmul@grs+1)
  5296  007B2A  C049  F04A         	clrf	((c:___flmul@grs)),c
  5297  007B2E  6A49               	line	149
  5298                           	
  5299                           l2357:
  5300  007B30                     	movf	((c:___flmul@aexp)),c,w
  5301  007B30  504D               	movff	(c:___flmul@bexp),??___flmul+0+0
  5302  007B32  C04E  F044         	clrf	(??___flmul+0+0+1)&0ffh,c
  5303  007B36  6A45               	addwf	(??___flmul+0+0),c
  5304  007B38  2644               	movlw	0
  5305  007B3A  0E00               	addwfc	(??___flmul+0+1),c
  5306  007B3C  2245               	movlw	low(-126)
  5307  007B3E  0E82               	addwf	(??___flmul+0+0),c,w
  5308  007B40  2444               	movwf	((c:___flmul@temp)),c
  5309  007B42  6E53               	movlw	high(-126)
  5310  007B44  0EFF               	addwfc	(??___flmul+0+1),c,w
  5311  007B46  2045               	movwf	1+((c:___flmul@temp)),c
  5312  007B48  6E54               	line	152
  5313                           	goto	l2365
  5314  007B4A  EFBE  F03D         	
  5315                           l1146:
  5316  007B4E                     	line	153
  5317                           	
  5318                           l2359:
  5319  007B4E                     	bcf	status,0
  5320  007B4E  90D8               	rlcf	((c:___flmul@prod)),c
  5321  007B50  364F               	rlcf	((c:___flmul@prod+1)),c
  5322  007B52  3650               	rlcf	((c:___flmul@prod+2)),c
  5323  007B54  3651               	rlcf	((c:___flmul@prod+3)),c
  5324  007B56  3652               	line	154
  5325                           	
  5326                           l2361:
  5327  007B58                     	
  5328                           	btfss	((c:___flmul@grs+3)),c,(31)&7
  5329  007B58  AE4C               	goto	u2161
  5330  007B5A  EFB1  F03D         	goto	u2160
  5331  007B5E  EFB3  F03D         u2161:
  5332  007B62                     	goto	l1147
  5333  007B62  EFB4  F03D         u2160:
  5334  007B66                     	line	155
  5335                           	
  5336                           l2363:
  5337  007B66                     	bsf	(0+(0/8)+(c:___flmul@prod)),c,(0)&7
  5338  007B66  804F               	line	156
  5339                           	
  5340                           l1147:
  5341  007B68                     	line	157
  5342                           	bcf	status,0
  5343  007B68  90D8               	rlcf	((c:___flmul@grs)),c
  5344  007B6A  3649               	rlcf	((c:___flmul@grs+1)),c
  5345  007B6C  364A               	rlcf	((c:___flmul@grs+2)),c
  5346  007B6E  364B               	rlcf	((c:___flmul@grs+3)),c
  5347  007B70  364C               	line	158
  5348                           	decf	((c:___flmul@temp)),c
  5349  007B72  0653               	btfss	status,0
  5350  007B74  A0D8               	decf	((c:___flmul@temp+1)),c
  5351  007B76  0654               	goto	l2365
  5352  007B78  EFBE  F03D         	line	159
  5353                           	
  5354                           l1145:
  5355  007B7C                     	line	152
  5356                           	
  5357                           l2365:
  5358  007B7C                     	
  5359                           	btfss	((c:___flmul@prod+2)),c,(23)&7
  5360  007B7C  AE51               	goto	u2171
  5361  007B7E  EFC3  F03D         	goto	u2170
  5362  007B82  EFC5  F03D         u2171:
  5363  007B86                     	goto	l2359
  5364  007B86  EFA7  F03D         u2170:
  5365  007B8A                     	goto	l2367
  5366  007B8A  EFC7  F03D         	
  5367                           l1148:
  5368  007B8E                     	line	163
  5369                           	
  5370                           l2367:
  5371  007B8E                     	movlw	low(0)
  5372  007B8E  0E00               	movwf	((c:___flmul@aexp)),c
  5373  007B90  6E4D               	line	164
  5374                           	
  5375                           l2369:
  5376  007B92                     	
  5377                           	btfss	((c:___flmul@grs+3)),c,(31)&7
  5378  007B92  AE4C               	goto	u2181
  5379  007B94  EFCE  F03D         	goto	u2180
  5380  007B98  EFD0  F03D         u2181:
  5381  007B9C                     	goto	l1149
  5382  007B9C  EFF8  F03D         u2180:
  5383  007BA0                     	line	165
  5384                           	
  5385                           l2371:
  5386  007BA0                     	movlw	0FFh
  5387  007BA0  0EFF               	andwf	((c:___flmul@grs)),c,w
  5388  007BA2  1449               	movwf	(??___flmul+0+0)&0ffh,c
  5389  007BA4  6E44               	movlw	0FFh
  5390  007BA6  0EFF               	andwf	((c:___flmul@grs+1)),c,w
  5391  007BA8  144A               	movwf	1+(??___flmul+0+0)&0ffh,c
  5392  007BAA  6E45               	
  5393                           	movlw	0FFh
  5394  007BAC  0EFF               	andwf	((c:___flmul@grs+2)),c,w
  5395  007BAE  144B               	movwf	2+(??___flmul+0+0)&0ffh,c
  5396  007BB0  6E46               	
  5397                           	movlw	07Fh
  5398  007BB2  0E7F               	andwf	((c:___flmul@grs+3)),c,w
  5399  007BB4  144C               	movwf	3+(??___flmul+0+0)&0ffh,c
  5400  007BB6  6E47               	movf	(??___flmul+0+0),c,w
  5401  007BB8  5044               iorwf	(??___flmul+0+1),c,w
  5402  007BBA  1045               iorwf	(??___flmul+0+2),c,w
  5403  007BBC  1046               iorwf	(??___flmul+0+3),c,w
  5404  007BBE  1047               	btfsc	status,2
  5405  007BC0  B4D8               	goto	u2191
  5406  007BC2  EFE5  F03D         	goto	u2190
  5407  007BC6  EFE7  F03D         
  5408                           u2191:
  5409  007BCA                     	goto	l1150
  5410  007BCA  EFEB  F03D         u2190:
  5411  007BCE                     	line	166
  5412                           	
  5413                           l2373:
  5414  007BCE                     	movlw	low(01h)
  5415  007BCE  0E01               	movwf	((c:___flmul@aexp)),c
  5416  007BD0  6E4D               	line	167
  5417                           	goto	l1149
  5418  007BD2  EFF8  F03D         	line	168
  5419                           	
  5420                           l1150:
  5421  007BD6                     	line	169
  5422                           	
  5423                           	btfss	((c:___flmul@prod)),c,(0)&7
  5424  007BD6  A04F               	goto	u2201
  5425  007BD8  EFF0  F03D         	goto	u2200
  5426  007BDC  EFF2  F03D         u2201:
  5427  007BE0                     	goto	l1149
  5428  007BE0  EFF8  F03D         u2200:
  5429  007BE4                     	line	170
  5430                           	
  5431                           l2375:
  5432  007BE4                     	movlw	low(01h)
  5433  007BE4  0E01               	movwf	((c:___flmul@aexp)),c
  5434  007BE6  6E4D               	goto	l1149
  5435  007BE8  EFF8  F03D         	line	171
  5436                           	
  5437                           l1152:
  5438  007BEC                     	goto	l1149
  5439  007BEC  EFF8  F03D         	line	172
  5440                           	
  5441                           l1151:
  5442  007BF0                     	line	173
  5443                           	
  5444                           l1149:
  5445  007BF0                     	line	174
  5446                           	movf	((c:___flmul@aexp)),c,w
  5447  007BF0  504D               	btfsc	status,2
  5448  007BF2  B4D8               	goto	u2211
  5449  007BF4  EFFE  F03D         	goto	u2210
  5450  007BF8  EF00  F03E         u2211:
  5451  007BFC                     	goto	l2385
  5452  007BFC  EF28  F03E         u2210:
  5453  007C00                     	line	175
  5454                           	
  5455                           l2377:
  5456  007C00                     	movlw	low(01h)
  5457  007C00  0E01               	addwf	((c:___flmul@prod)),c
  5458  007C02  264F               	movlw	0
  5459  007C04  0E00               	addwfc	((c:___flmul@prod+1)),c
  5460  007C06  2250               	addwfc	((c:___flmul@prod+2)),c
  5461  007C08  2251               	addwfc	((c:___flmul@prod+3)),c
  5462  007C0A  2252               	line	176
  5463                           	
  5464                           l2379:
  5465  007C0C                     	
  5466                           	btfss	((c:___flmul@prod+3)),c,(24)&7
  5467  007C0C  A052               	goto	u2221
  5468  007C0E  EF0B  F03E         	goto	u2220
  5469  007C12  EF0D  F03E         u2221:
  5470  007C16                     	goto	l2385
  5471  007C16  EF28  F03E         u2220:
  5472  007C1A                     	line	177
  5473                           	
  5474                           l2381:
  5475  007C1A                     	movff	(c:___flmul@prod),??___flmul+0+0
  5476  007C1A  C04F  F044         	movff	(c:___flmul@prod+1),??___flmul+0+0+1
  5477  007C1E  C050  F045         	movff	(c:___flmul@prod+2),??___flmul+0+0+2
  5478  007C22  C051  F046         	movff	(c:___flmul@prod+3),??___flmul+0+0+3
  5479  007C26  C052  F047         	rlcf	(??___flmul+0+3),c,w
  5480  007C2A  3447               	rrcf	(??___flmul+0+3),c
  5481  007C2C  3247               	rrcf	(??___flmul+0+2),c
  5482  007C2E  3246               	rrcf	(??___flmul+0+1),c
  5483  007C30  3245               	rrcf	(??___flmul+0+0),c
  5484  007C32  3244               	movff	??___flmul+0+0,(c:___flmul@prod)
  5485  007C34  C044  F04F         	movff	??___flmul+0+1,(c:___flmul@prod+1)
  5486  007C38  C045  F050         	movff	??___flmul+0+2,(c:___flmul@prod+2)
  5487  007C3C  C046  F051         	movff	??___flmul+0+3,(c:___flmul@prod+3)
  5488  007C40  C047  F052         	line	178
  5489                           	
  5490                           l2383:
  5491  007C44                     	infsnz	((c:___flmul@temp)),c
  5492  007C44  4A53               	incf	((c:___flmul@temp+1)),c
  5493  007C46  2A54               	goto	l2385
  5494  007C48  EF28  F03E         	line	179
  5495                           	
  5496                           l1154:
  5497  007C4C                     	goto	l2385
  5498  007C4C  EF28  F03E         	line	180
  5499                           	
  5500                           l1153:
  5501  007C50                     	line	183
  5502                           	
  5503                           l2385:
  5504  007C50                     	btfsc	((c:___flmul@temp+1)),c,7
  5505  007C50  BE54               	goto	u2231
  5506  007C52  EF33  F03E         	movf	((c:___flmul@temp+1)),c,w
  5507  007C56  5054               	bnz	u2230
  5508  007C58  E108               	incf	((c:___flmul@temp)),c,w
  5509  007C5A  2853               	btfss	status,0
  5510  007C5C  A0D8               	goto	u2231
  5511  007C5E  EF33  F03E         	goto	u2230
  5512  007C62  EF35  F03E         
  5513                           u2231:
  5514  007C66                     	goto	l2389
  5515  007C66  EF3F  F03E         u2230:
  5516  007C6A                     	line	184
  5517                           	
  5518                           l2387:
  5519  007C6A                     	movlw	low(07F800000h)
  5520  007C6A  0E00               	movwf	((c:___flmul@prod)),c
  5521  007C6C  6E4F               	movlw	high(07F800000h)
  5522  007C6E  0E00               	movwf	((c:___flmul@prod+1)),c
  5523  007C70  6E50               	movlw	low highword(07F800000h)
  5524  007C72  0E80               	movwf	((c:___flmul@prod+2)),c
  5525  007C74  6E51               	movlw	high highword(07F800000h)
  5526  007C76  0E7F               	movwf	((c:___flmul@prod+3)),c
  5527  007C78  6E52               	line	185
  5528                           	goto	l2401
  5529  007C7A  EF73  F03E         	line	187
  5530                           	
  5531                           l1155:
  5532  007C7E                     	
  5533                           l2389:
  5534  007C7E                     	btfsc	((c:___flmul@temp+1)),c,7
  5535  007C7E  BE54               	goto	u2240
  5536  007C80  EF4C  F03E         	movf	((c:___flmul@temp+1)),c,w
  5537  007C84  5054               	bnz	u2241
  5538  007C86  E106               	decf	((c:___flmul@temp)),c,w
  5539  007C88  0453               	btfsc	status,0
  5540  007C8A  B0D8               	goto	u2241
  5541  007C8C  EF4A  F03E         	goto	u2240
  5542  007C90  EF4C  F03E         
  5543                           u2241:
  5544  007C94                     	goto	l1157
  5545  007C94  EF58  F03E         u2240:
  5546  007C98                     	line	188
  5547                           	
  5548                           l2391:
  5549  007C98                     	movlw	low(0)
  5550  007C98  0E00               	movwf	((c:___flmul@prod)),c
  5551  007C9A  6E4F               	movlw	high(0)
  5552  007C9C  0E00               	movwf	((c:___flmul@prod+1)),c
  5553  007C9E  6E50               	movlw	low highword(0)
  5554  007CA0  0E00               	movwf	((c:___flmul@prod+2)),c
  5555  007CA2  6E51               	movlw	high highword(0)
  5556  007CA4  0E00               	movwf	((c:___flmul@prod+3)),c
  5557  007CA6  6E52               	line	190
  5558                           	movlw	low(0)
  5559  007CA8  0E00               	movwf	((c:___flmul@sign)),c
  5560  007CAA  6E48               	line	191
  5561                           	goto	l2401
  5562  007CAC  EF73  F03E         	line	192
  5563                           	
  5564                           l1157:
  5565  007CB0                     	line	194
  5566                           	movff	(c:___flmul@temp),(c:___flmul@bexp)
  5567  007CB0  C053  F04E         	line	195
  5568                           	
  5569                           l2393:
  5570  007CB4                     	movlw	0FFh
  5571  007CB4  0EFF               	andwf	((c:___flmul@prod)),c
  5572  007CB6  164F               	movlw	0FFh
  5573  007CB8  0EFF               	andwf	((c:___flmul@prod+1)),c
  5574  007CBA  1650               	movlw	07Fh
  5575  007CBC  0E7F               	andwf	((c:___flmul@prod+2)),c
  5576  007CBE  1651               	movlw	0
  5577  007CC0  0E00               	andwf	((c:___flmul@prod+3)),c
  5578  007CC2  1652               	line	196
  5579                           	
  5580                           l2395:
  5581  007CC4                     	
  5582                           	btfss	((c:___flmul@bexp)),c,(0)&7
  5583  007CC4  A04E               	goto	u2251
  5584  007CC6  EF67  F03E         	goto	u2250
  5585  007CCA  EF69  F03E         u2251:
  5586  007CCE                     	goto	l2399
  5587  007CCE  EF6C  F03E         u2250:
  5588  007CD2                     	line	197
  5589                           	
  5590                           l2397:
  5591  007CD2                     	bsf	(0+(7/8)+0+((c:___flmul@prod)+02h)),c,(7)&7
  5592  007CD2  8E51               	goto	l2399
  5593  007CD4  EF6C  F03E         	line	198
  5594                           	
  5595                           l1159:
  5596  007CD8                     	line	199
  5597                           	
  5598                           l2399:
  5599  007CD8                     	bcf	status,0
  5600  007CD8  90D8               	rrcf	((c:___flmul@bexp)),c,w
  5601  007CDA  304E               	movwf	(0+((c:___flmul@prod)+03h)),c
  5602  007CDC  6E52               	goto	l2401
  5603  007CDE  EF73  F03E         	line	200
  5604                           	
  5605                           l1158:
  5606  007CE2                     	goto	l2401
  5607  007CE2  EF73  F03E         	
  5608                           l1156:
  5609  007CE6                     	line	201
  5610                           	
  5611                           l2401:
  5612  007CE6                     	movf	((c:___flmul@sign)),c,w
  5613  007CE6  5048               	iorwf	(0+((c:___flmul@prod)+03h)),c
  5614  007CE8  1252               	line	203
  5615                           	
  5616                           l2403:
  5617  007CEA                     	movff	(c:___flmul@prod),(c:?___flmul)
  5618  007CEA  C04F  F03C         	movff	(c:___flmul@prod+1),(c:?___flmul+1)
  5619  007CEE  C050  F03D         	movff	(c:___flmul@prod+2),(c:?___flmul+2)
  5620  007CF2  C051  F03E         	movff	(c:___flmul@prod+3),(c:?___flmul+3)
  5621  007CF6  C052  F03F         	goto	l1144
  5622  007CFA  EF7F  F03E         	
  5623                           l2405:
  5624  007CFE                     	line	205
  5625                           	
  5626                           l1144:
  5627  007CFE                     	return	;funcret
  5628  007CFE  0012               	opt stack 0
  5629                           GLOBAL	__end_of___flmul
  5630                           	__end_of___flmul:
  5631  007D00                     	signat	___flmul,8316
  5632                           	global	___fldiv
  5633                           
  5634 ;; *************** function ___fldiv *****************
  5635 ;; Defined at:
  5636 ;;		line 11 in file "C:\Program Files (x86)\Microchip\xc8\v2.00\pic\sources\c99\common\sprcdiv.c"
  5637 ;; Parameters:    Size  Location     Type
  5638 ;;  b               4   34[COMRAM] unsigned char 
  5639 ;;  a               4   38[COMRAM] unsigned char 
  5640 ;; Auto vars:     Size  Location     Type
  5641 ;;  grs             4   53[COMRAM] unsigned long 
  5642 ;;  rem             4   46[COMRAM] unsigned long 
  5643 ;;  new_exp         2   51[COMRAM] short 
  5644 ;;  aexp            1   58[COMRAM] unsigned char 
  5645 ;;  bexp            1   57[COMRAM] unsigned char 
  5646 ;;  sign            1   50[COMRAM] unsigned char 
  5647 ;; Return value:  Size  Location     Type
  5648 ;;                  4   34[COMRAM] unsigned char 
  5649 ;; Registers used:
  5650 ;;		wreg, status,2, status,0
  5651 ;; Tracked objects:
  5652 ;;		On entry : 0/0
  5653 ;;		On exit  : 0/0
  5654 ;;		Unchanged: 0/0
  5655 ;; Data sizes:     COMRAM   BANK0   BANK1   BANK2   BANK3   BANK4   BANK5   BANK6   BANK7
  5656 ;;      Params:         8       0       0       0       0       0       0       0       0
  5657 ;;      Locals:        13       0       0       0       0       0       0       0       0
  5658 ;;      Temps:          4       0       0       0       0       0       0       0       0
  5659 ;;      Totals:        25       0       0       0       0       0       0       0       0
  5660 ;;Total ram usage:       25 bytes
  5661 ;; Hardware stack levels used:    1
  5662 ;; Hardware stack levels required when called:    1
  5663 ;; This function calls:
  5664 ;;		Nothing
  5665 ;; This function is called by:
  5666 ;;		_analogWrite
  5667 ;;		_Frequency
  5668 ;;		_rescale
  5669 ;; This function uses a non-reentrant model
  5670 ;;
  5671                           psect	text12,class=CODE,space=0,reloc=2,group=1
  5672                           	file	"C:\Program Files (x86)\Microchip\xc8\v2.00\pic\sources\c99\common\sprcdiv.c"
  5673                           	line	11
  5674                           global __ptext12
  5675                           __ptext12:
  5676  007472                     psect	text12
  5677                           	file	"C:\Program Files (x86)\Microchip\xc8\v2.00\pic\sources\c99\common\sprcdiv.c"
  5678                           	line	11
  5679                           	global	__size_of___fldiv
  5680                           	__size_of___fldiv	equ	__end_of___fldiv-___fldiv
  5681  0000                     	
  5682                           ___fldiv:
  5683  007472                     ;incstack = 0
  5684                           	opt	stack 27
  5685                           	line	26
  5686                           	
  5687                           l2139:
  5688  007472                     	movf	(0+((c:___fldiv@b)+03h)),c,w
  5689  007472  5026               	andlw	low(080h)
  5690  007474  0B80               	movwf	((c:___fldiv@sign)),c
  5691  007476  6E33               	line	27
  5692                           	movf	(0+((c:___fldiv@b)+03h)),c,w
  5693  007478  5026               	addwf	(0+((c:___fldiv@b)+03h)),c,w
  5694  00747A  2426               	movwf	((c:___fldiv@bexp)),c
  5695  00747C  6E3A               	line	28
  5696                           	
  5697                           l2141:
  5698  00747E                     	
  5699                           	btfss	(0+((c:___fldiv@b)+02h)),c,(7)&7
  5700  00747E  AE25               	goto	u1841
  5701  007480  EF44  F03A         	goto	u1840
  5702  007484  EF46  F03A         u1841:
  5703  007488                     	goto	l2145
  5704  007488  EF49  F03A         u1840:
  5705  00748C                     	line	29
  5706                           	
  5707                           l2143:
  5708  00748C                     	bsf	(0+(0/8)+(c:___fldiv@bexp)),c,(0)&7
  5709  00748C  803A               	goto	l2145
  5710  00748E  EF49  F03A         	line	30
  5711                           	
  5712                           l1099:
  5713  007492                     	line	33
  5714                           	
  5715                           l2145:
  5716  007492                     	movf	((c:___fldiv@bexp)),c,w
  5717  007492  503A               	btfsc	status,2
  5718  007494  B4D8               	goto	u1851
  5719  007496  EF4F  F03A         	goto	u1850
  5720  00749A  EF51  F03A         u1851:
  5721  00749E                     	goto	l2155
  5722  00749E  EF68  F03A         u1850:
  5723  0074A2                     	line	35
  5724                           	
  5725                           l2147:
  5726  0074A2                     		incf	((c:___fldiv@bexp)),c,w
  5727  0074A2  283A               	btfss	status,2
  5728  0074A4  A4D8               	goto	u1861
  5729  0074A6  EF57  F03A         	goto	u1860
  5730  0074AA  EF59  F03A         
  5731                           u1861:
  5732  0074AE                     	goto	l2151
  5733  0074AE  EF63  F03A         u1860:
  5734  0074B2                     	line	37
  5735                           	
  5736                           l2149:
  5737  0074B2                     	movlw	low(normalize32(0x0))
  5738  0074B2  0E00               	movwf	((c:___fldiv@b)),c
  5739  0074B4  6E23               	movlw	high(normalize32(0x0))
  5740  0074B6  0E00               	movwf	((c:___fldiv@b+1)),c
  5741  0074B8  6E24               	movlw	low highword(normalize32(0x0))
  5742  0074BA  0E00               	movwf	((c:___fldiv@b+2)),c
  5743  0074BC  6E25               	movlw	high highword(normalize32(0x0))
  5744  0074BE  0E00               	movwf	((c:___fldiv@b+3)),c
  5745  0074C0  6E26               	goto	l2151
  5746  0074C2  EF63  F03A         	line	38
  5747                           	
  5748                           l1101:
  5749  0074C6                     	line	40
  5750                           	
  5751                           l2151:
  5752  0074C6                     	bsf	(0+(23/8)+(c:___fldiv@b)),c,(23)&7
  5753  0074C6  8E25               	line	42
  5754                           	
  5755                           l2153:
  5756  0074C8                     	movlw	low(0)
  5757  0074C8  0E00               	movwf	(0+((c:___fldiv@b)+03h)),c
  5758  0074CA  6E26               	line	43
  5759                           	goto	l2157
  5760  0074CC  EF72  F03A         	line	44
  5761                           	
  5762                           l1100:
  5763  0074D0                     	line	46
  5764                           	
  5765                           l2155:
  5766  0074D0                     	movlw	low(normalize32(0x0))
  5767  0074D0  0E00               	movwf	((c:___fldiv@b)),c
  5768  0074D2  6E23               	movlw	high(normalize32(0x0))
  5769  0074D4  0E00               	movwf	((c:___fldiv@b+1)),c
  5770  0074D6  6E24               	movlw	low highword(normalize32(0x0))
  5771  0074D8  0E00               	movwf	((c:___fldiv@b+2)),c
  5772  0074DA  6E25               	movlw	high highword(normalize32(0x0))
  5773  0074DC  0E00               	movwf	((c:___fldiv@b+3)),c
  5774  0074DE  6E26               	goto	l2157
  5775  0074E0  EF72  F03A         	line	47
  5776                           	
  5777                           l1102:
  5778  0074E4                     	line	49
  5779                           	
  5780                           l2157:
  5781  0074E4                     	movf	(0+((c:___fldiv@a)+03h)),c,w
  5782  0074E4  502A               	andlw	low(080h)
  5783  0074E6  0B80               	xorwf	((c:___fldiv@sign)),c
  5784  0074E8  1A33               	line	50
  5785                           	
  5786                           l2159:
  5787  0074EA                     	movf	(0+((c:___fldiv@a)+03h)),c,w
  5788  0074EA  502A               	addwf	(0+((c:___fldiv@a)+03h)),c,w
  5789  0074EC  242A               	movwf	((c:___fldiv@aexp)),c
  5790  0074EE  6E3B               	line	51
  5791                           	
  5792                           l2161:
  5793  0074F0                     	
  5794                           	btfss	(0+((c:___fldiv@a)+02h)),c,(7)&7
  5795  0074F0  AE29               	goto	u1871
  5796  0074F2  EF7D  F03A         	goto	u1870
  5797  0074F6  EF7F  F03A         u1871:
  5798  0074FA                     	goto	l2165
  5799  0074FA  EF82  F03A         u1870:
  5800  0074FE                     	line	52
  5801                           	
  5802                           l2163:
  5803  0074FE                     	bsf	(0+(0/8)+(c:___fldiv@aexp)),c,(0)&7
  5804  0074FE  803B               	goto	l2165
  5805  007500  EF82  F03A         	line	53
  5806                           	
  5807                           l1103:
  5808  007504                     	line	56
  5809                           	
  5810                           l2165:
  5811  007504                     	movf	((c:___fldiv@aexp)),c,w
  5812  007504  503B               	btfsc	status,2
  5813  007506  B4D8               	goto	u1881
  5814  007508  EF88  F03A         	goto	u1880
  5815  00750C  EF8A  F03A         u1881:
  5816  007510                     	goto	l2175
  5817  007510  EFA1  F03A         u1880:
  5818  007514                     	line	58
  5819                           	
  5820                           l2167:
  5821  007514                     		incf	((c:___fldiv@aexp)),c,w
  5822  007514  283B               	btfss	status,2
  5823  007516  A4D8               	goto	u1891
  5824  007518  EF90  F03A         	goto	u1890
  5825  00751C  EF92  F03A         
  5826                           u1891:
  5827  007520                     	goto	l2171
  5828  007520  EF9C  F03A         u1890:
  5829  007524                     	line	60
  5830                           	
  5831                           l2169:
  5832  007524                     	movlw	low(normalize32(0x0))
  5833  007524  0E00               	movwf	((c:___fldiv@a)),c
  5834  007526  6E27               	movlw	high(normalize32(0x0))
  5835  007528  0E00               	movwf	((c:___fldiv@a+1)),c
  5836  00752A  6E28               	movlw	low highword(normalize32(0x0))
  5837  00752C  0E00               	movwf	((c:___fldiv@a+2)),c
  5838  00752E  6E29               	movlw	high highword(normalize32(0x0))
  5839  007530  0E00               	movwf	((c:___fldiv@a+3)),c
  5840  007532  6E2A               	goto	l2171
  5841  007534  EF9C  F03A         	line	61
  5842                           	
  5843                           l1105:
  5844  007538                     	line	63
  5845                           	
  5846                           l2171:
  5847  007538                     	bsf	(0+(23/8)+(c:___fldiv@a)),c,(23)&7
  5848  007538  8E29               	line	65
  5849                           	
  5850                           l2173:
  5851  00753A                     	movlw	low(0)
  5852  00753A  0E00               	movwf	(0+((c:___fldiv@a)+03h)),c
  5853  00753C  6E2A               	line	66
  5854                           	goto	l2177
  5855  00753E  EFAB  F03A         	line	67
  5856                           	
  5857                           l1104:
  5858  007542                     	line	69
  5859                           	
  5860                           l2175:
  5861  007542                     	movlw	low(normalize32(0x0))
  5862  007542  0E00               	movwf	((c:___fldiv@a)),c
  5863  007544  6E27               	movlw	high(normalize32(0x0))
  5864  007546  0E00               	movwf	((c:___fldiv@a+1)),c
  5865  007548  6E28               	movlw	low highword(normalize32(0x0))
  5866  00754A  0E00               	movwf	((c:___fldiv@a+2)),c
  5867  00754C  6E29               	movlw	high highword(normalize32(0x0))
  5868  00754E  0E00               	movwf	((c:___fldiv@a+3)),c
  5869  007550  6E2A               	goto	l2177
  5870  007552  EFAB  F03A         	line	70
  5871                           	
  5872                           l1106:
  5873  007556                     	line	75
  5874                           	
  5875                           l2177:
  5876  007556                     	movf	((c:___fldiv@a)),c,w
  5877  007556  5027               iorwf	((c:___fldiv@a+1)),c,w
  5878  007558  1028               iorwf	((c:___fldiv@a+2)),c,w
  5879  00755A  1029               iorwf	((c:___fldiv@a+3)),c,w
  5880  00755C  102A               	btfss	status,2
  5881  00755E  A4D8               	goto	u1901
  5882  007560  EFB4  F03A         	goto	u1900
  5883  007564  EFB6  F03A         
  5884                           u1901:
  5885  007568                     	goto	l2189
  5886  007568  EFD0  F03A         u1900:
  5887  00756C                     	line	76
  5888                           	
  5889                           l2179:
  5890  00756C                     	movlw	low(0)
  5891  00756C  0E00               	movwf	((c:___fldiv@b)),c
  5892  00756E  6E23               	movlw	high(0)
  5893  007570  0E00               	movwf	((c:___fldiv@b+1)),c
  5894  007572  6E24               	movlw	low highword(0)
  5895  007574  0E00               	movwf	((c:___fldiv@b+2)),c
  5896  007576  6E25               	movlw	high highword(0)
  5897  007578  0E00               	movwf	((c:___fldiv@b+3)),c
  5898  00757A  6E26               	line	77
  5899                           	
  5900                           l2181:
  5901  00757C                     	movlw	low(07F80h)
  5902  00757C  0E80               	iorwf	(0+((c:___fldiv@b)+02h)),c
  5903  00757E  1225               	movlw	high(07F80h)
  5904  007580  0E7F               	iorwf	(1+((c:___fldiv@b)+02h)),c
  5905  007582  1226               	line	78
  5906                           	
  5907                           l2183:
  5908  007584                     	movf	((c:___fldiv@sign)),c,w
  5909  007584  5033               	iorwf	(0+((c:___fldiv@b)+03h)),c
  5910  007586  1226               	line	79
  5911                           	
  5912                           l2185:
  5913  007588                     	movff	(c:___fldiv@b),(c:?___fldiv)
  5914  007588  C023  F023         	movff	(c:___fldiv@b+1),(c:?___fldiv+1)
  5915  00758C  C024  F024         	movff	(c:___fldiv@b+2),(c:?___fldiv+2)
  5916  007590  C025  F025         	movff	(c:___fldiv@b+3),(c:?___fldiv+3)
  5917  007594  C026  F026         	goto	l1108
  5918  007598  EF48  F03C         	
  5919                           l2187:
  5920  00759C                     	goto	l1108
  5921  00759C  EF48  F03C         	line	80
  5922                           	
  5923                           l1107:
  5924  0075A0                     	line	83
  5925                           	
  5926                           l2189:
  5927  0075A0                     	movf	((c:___fldiv@bexp)),c,w
  5928  0075A0  503A               	btfss	status,2
  5929  0075A2  A4D8               	goto	u1911
  5930  0075A4  EFD6  F03A         	goto	u1910
  5931  0075A8  EFD8  F03A         u1911:
  5932  0075AC                     	goto	l2197
  5933  0075AC  EFEC  F03A         u1910:
  5934  0075B0                     	line	84
  5935                           	
  5936                           l2191:
  5937  0075B0                     	movlw	low(0)
  5938  0075B0  0E00               	movwf	((c:___fldiv@b)),c
  5939  0075B2  6E23               	movlw	high(0)
  5940  0075B4  0E00               	movwf	((c:___fldiv@b+1)),c
  5941  0075B6  6E24               	movlw	low highword(0)
  5942  0075B8  0E00               	movwf	((c:___fldiv@b+2)),c
  5943  0075BA  6E25               	movlw	high highword(0)
  5944  0075BC  0E00               	movwf	((c:___fldiv@b+3)),c
  5945  0075BE  6E26               	line	85
  5946                           	
  5947                           l2193:
  5948  0075C0                     	movff	(c:___fldiv@b),(c:?___fldiv)
  5949  0075C0  C023  F023         	movff	(c:___fldiv@b+1),(c:?___fldiv+1)
  5950  0075C4  C024  F024         	movff	(c:___fldiv@b+2),(c:?___fldiv+2)
  5951  0075C8  C025  F025         	movff	(c:___fldiv@b+3),(c:?___fldiv+3)
  5952  0075CC  C026  F026         	goto	l1108
  5953  0075D0  EF48  F03C         	
  5954                           l2195:
  5955  0075D4                     	goto	l1108
  5956  0075D4  EF48  F03C         	line	86
  5957                           	
  5958                           l1109:
  5959  0075D8                     	line	89
  5960                           	
  5961                           l2197:
  5962  0075D8                     	movf	((c:___fldiv@aexp)),c,w
  5963  0075D8  503B               	movwf	(??___fldiv+0+0)&0ffh,c
  5964  0075DA  6E2B               	clrf	(??___fldiv+0+0+1)&0ffh,c
  5965  0075DC  6A2C               
  5966                           	comf	(??___fldiv+0+0),c
  5967  0075DE  1E2B               	comf	(??___fldiv+0+1),c
  5968  0075E0  1E2C               	infsnz	(??___fldiv+0+0),c
  5969  0075E2  4A2B               	incf	(??___fldiv+0+1),c
  5970  0075E4  2A2C               	movf	((c:___fldiv@bexp)),c,w
  5971  0075E6  503A               	movwf	(??___fldiv+2+0)&0ffh,c
  5972  0075E8  6E2D               	clrf	(??___fldiv+2+0+1)&0ffh,c
  5973  0075EA  6A2E               
  5974                           	movf	(??___fldiv+0+0),c,w
  5975  0075EC  502B               	addwf	(??___fldiv+2+0),c
  5976  0075EE  262D               	movf	(??___fldiv+0+1),c,w
  5977  0075F0  502C               	addwfc	(??___fldiv+2+1),c
  5978  0075F2  222E               	movlw	low(07Fh)
  5979  0075F4  0E7F               	addwf	(??___fldiv+2+0),c,w
  5980  0075F6  242D               	movwf	((c:___fldiv@new_exp)),c
  5981  0075F8  6E34               	movlw	high(07Fh)
  5982  0075FA  0E00               	addwfc	(??___fldiv+2+1),c,w
  5983  0075FC  202E               	movwf	1+((c:___fldiv@new_exp)),c
  5984  0075FE  6E35               	line	92
  5985                           	
  5986                           l2199:
  5987  007600                     	movff	(c:___fldiv@b),(c:___fldiv@rem)
  5988  007600  C023  F02F         	movff	(c:___fldiv@b+1),(c:___fldiv@rem+1)
  5989  007604  C024  F030         	movff	(c:___fldiv@b+2),(c:___fldiv@rem+2)
  5990  007608  C025  F031         	movff	(c:___fldiv@b+3),(c:___fldiv@rem+3)
  5991  00760C  C026  F032         	line	93
  5992                           	
  5993                           l2201:
  5994  007610                     	movlw	low(0)
  5995  007610  0E00               	movwf	((c:___fldiv@b)),c
  5996  007612  6E23               	movlw	high(0)
  5997  007614  0E00               	movwf	((c:___fldiv@b+1)),c
  5998  007616  6E24               	movlw	low highword(0)
  5999  007618  0E00               	movwf	((c:___fldiv@b+2)),c
  6000  00761A  6E25               	movlw	high highword(0)
  6001  00761C  0E00               	movwf	((c:___fldiv@b+3)),c
  6002  00761E  6E26               	line	94
  6003                           	
  6004                           l2203:
  6005  007620                     	movlw	low(0)
  6006  007620  0E00               	movwf	((c:___fldiv@grs)),c
  6007  007622  6E36               	movlw	high(0)
  6008  007624  0E00               	movwf	((c:___fldiv@grs+1)),c
  6009  007626  6E37               	movlw	low highword(0)
  6010  007628  0E00               	movwf	((c:___fldiv@grs+2)),c
  6011  00762A  6E38               	movlw	high highword(0)
  6012  00762C  0E00               	movwf	((c:___fldiv@grs+3)),c
  6013  00762E  6E39               	line	96
  6014                           	
  6015                           l2205:
  6016  007630                     	movlw	low(0)
  6017  007630  0E00               	movwf	((c:___fldiv@aexp)),c
  6018  007632  6E3B               	line	97
  6019                           	goto	l1110
  6020  007634  EF58  F03B         	
  6021                           l1111:
  6022  007638                     	line	100
  6023                           	
  6024                           l2207:
  6025  007638                     	movf	((c:___fldiv@aexp)),c,w
  6026  007638  503B               	btfsc	status,2
  6027  00763A  B4D8               	goto	u1921
  6028  00763C  EF22  F03B         	goto	u1920
  6029  007640  EF24  F03B         u1921:
  6030  007644                     	goto	l2215
  6031  007644  EF3D  F03B         u1920:
  6032  007648                     	line	101
  6033                           	
  6034                           l2209:
  6035  007648                     	bcf	status,0
  6036  007648  90D8               	rlcf	((c:___fldiv@rem)),c
  6037  00764A  362F               	rlcf	((c:___fldiv@rem+1)),c
  6038  00764C  3630               	rlcf	((c:___fldiv@rem+2)),c
  6039  00764E  3631               	rlcf	((c:___fldiv@rem+3)),c
  6040  007650  3632               	line	102
  6041                           	bcf	status,0
  6042  007652  90D8               	rlcf	((c:___fldiv@b)),c
  6043  007654  3623               	rlcf	((c:___fldiv@b+1)),c
  6044  007656  3624               	rlcf	((c:___fldiv@b+2)),c
  6045  007658  3625               	rlcf	((c:___fldiv@b+3)),c
  6046  00765A  3626               	line	103
  6047                           	
  6048                           l2211:
  6049  00765C                     	
  6050                           	btfss	((c:___fldiv@grs+3)),c,(31)&7
  6051  00765C  AE39               	goto	u1931
  6052  00765E  EF33  F03B         	goto	u1930
  6053  007662  EF35  F03B         u1931:
  6054  007666                     	goto	l1113
  6055  007666  EF36  F03B         u1930:
  6056  00766A                     	line	104
  6057                           	
  6058                           l2213:
  6059  00766A                     	bsf	(0+(0/8)+(c:___fldiv@b)),c,(0)&7
  6060  00766A  8023               	line	105
  6061                           	
  6062                           l1113:
  6063  00766C                     	line	106
  6064                           	bcf	status,0
  6065  00766C  90D8               	rlcf	((c:___fldiv@grs)),c
  6066  00766E  3636               	rlcf	((c:___fldiv@grs+1)),c
  6067  007670  3637               	rlcf	((c:___fldiv@grs+2)),c
  6068  007672  3638               	rlcf	((c:___fldiv@grs+3)),c
  6069  007674  3639               	goto	l2215
  6070  007676  EF3D  F03B         	line	107
  6071                           	
  6072                           l1112:
  6073  00767A                     	line	112
  6074                           	
  6075                           l2215:
  6076  00767A                     		movf	((c:___fldiv@a)),c,w
  6077  00767A  5027               	subwf	((c:___fldiv@rem)),c,w
  6078  00767C  5C2F               	movf	((c:___fldiv@a+1)),c,w
  6079  00767E  5028               	subwfb	((c:___fldiv@rem+1)),c,w
  6080  007680  5830               	movf	((c:___fldiv@a+2)),c,w
  6081  007682  5029               	subwfb	((c:___fldiv@rem+2)),c,w
  6082  007684  5831               	movf	((c:___fldiv@a+3)),c,w
  6083  007686  502A               	subwfb	((c:___fldiv@rem+3)),c,w
  6084  007688  5832               	btfss	status,0
  6085  00768A  A0D8               	goto	u1941
  6086  00768C  EF4A  F03B         	goto	u1940
  6087  007690  EF4C  F03B         
  6088                           u1941:
  6089  007694                     	goto	l2221
  6090  007694  EF57  F03B         u1940:
  6091  007698                     	line	115
  6092                           	
  6093                           l2217:
  6094  007698                     	bsf	(0+(30/8)+(c:___fldiv@grs)),c,(30)&7
  6095  007698  8C39               	line	116
  6096                           	
  6097                           l2219:
  6098  00769A                     	movf	((c:___fldiv@a)),c,w
  6099  00769A  5027               	subwf	((c:___fldiv@rem)),c
  6100  00769C  5E2F               	movf	((c:___fldiv@a+1)),c,w
  6101  00769E  5028               	subwfb	((c:___fldiv@rem+1)),c
  6102  0076A0  5A30               	movf	((c:___fldiv@a+2)),c,w
  6103  0076A2  5029               	subwfb	((c:___fldiv@rem+2)),c
  6104  0076A4  5A31               	movf	((c:___fldiv@a+3)),c,w
  6105  0076A6  502A               	subwfb	((c:___fldiv@rem+3)),c
  6106  0076A8  5A32               	goto	l2221
  6107  0076AA  EF57  F03B         	line	117
  6108                           	
  6109                           l1114:
  6110  0076AE                     	line	118
  6111                           	
  6112                           l2221:
  6113  0076AE                     	incf	((c:___fldiv@aexp)),c
  6114  0076AE  2A3B               	line	119
  6115                           	
  6116                           l1110:
  6117  0076B0                     	line	97
  6118                           		movlw	01Ah-1
  6119  0076B0  0E19               	cpfsgt	((c:___fldiv@aexp)),c
  6120  0076B2  643B               	goto	u1951
  6121  0076B4  EF5E  F03B         	goto	u1950
  6122  0076B8  EF60  F03B         
  6123                           u1951:
  6124  0076BC                     	goto	l2207
  6125  0076BC  EF1C  F03B         u1950:
  6126  0076C0                     	goto	l2223
  6127  0076C0  EF62  F03B         	
  6128                           l1115:
  6129  0076C4                     	line	122
  6130                           	
  6131                           l2223:
  6132  0076C4                     	movf	((c:___fldiv@rem)),c,w
  6133  0076C4  502F               iorwf	((c:___fldiv@rem+1)),c,w
  6134  0076C6  1030               iorwf	((c:___fldiv@rem+2)),c,w
  6135  0076C8  1031               iorwf	((c:___fldiv@rem+3)),c,w
  6136  0076CA  1032               	btfsc	status,2
  6137  0076CC  B4D8               	goto	u1961
  6138  0076CE  EF6B  F03B         	goto	u1960
  6139  0076D2  EF6D  F03B         
  6140                           u1961:
  6141  0076D6                     	goto	l2233
  6142  0076D6  EF89  F03B         u1960:
  6143  0076DA                     	line	123
  6144                           	
  6145                           l2225:
  6146  0076DA                     	bsf	(0+(0/8)+(c:___fldiv@grs)),c,(0)&7
  6147  0076DA  8036               	goto	l2233
  6148  0076DC  EF89  F03B         	line	124
  6149                           	
  6150                           l1116:
  6151  0076E0                     	line	127
  6152                           	goto	l2233
  6153  0076E0  EF89  F03B         	
  6154                           l1118:
  6155  0076E4                     	line	128
  6156                           	
  6157                           l2227:
  6158  0076E4                     	bcf	status,0
  6159  0076E4  90D8               	rlcf	((c:___fldiv@b)),c
  6160  0076E6  3623               	rlcf	((c:___fldiv@b+1)),c
  6161  0076E8  3624               	rlcf	((c:___fldiv@b+2)),c
  6162  0076EA  3625               	rlcf	((c:___fldiv@b+3)),c
  6163  0076EC  3626               	line	129
  6164                           	
  6165                           l2229:
  6166  0076EE                     	
  6167                           	btfss	((c:___fldiv@grs+3)),c,(31)&7
  6168  0076EE  AE39               	goto	u1971
  6169  0076F0  EF7C  F03B         	goto	u1970
  6170  0076F4  EF7E  F03B         u1971:
  6171  0076F8                     	goto	l1119
  6172  0076F8  EF7F  F03B         u1970:
  6173  0076FC                     	line	130
  6174                           	
  6175                           l2231:
  6176  0076FC                     	bsf	(0+(0/8)+(c:___fldiv@b)),c,(0)&7
  6177  0076FC  8023               	line	131
  6178                           	
  6179                           l1119:
  6180  0076FE                     	line	132
  6181                           	bcf	status,0
  6182  0076FE  90D8               	rlcf	((c:___fldiv@grs)),c
  6183  007700  3636               	rlcf	((c:___fldiv@grs+1)),c
  6184  007702  3637               	rlcf	((c:___fldiv@grs+2)),c
  6185  007704  3638               	rlcf	((c:___fldiv@grs+3)),c
  6186  007706  3639               	line	133
  6187                           	decf	((c:___fldiv@new_exp)),c
  6188  007708  0634               	btfss	status,0
  6189  00770A  A0D8               	decf	((c:___fldiv@new_exp+1)),c
  6190  00770C  0635               	goto	l2233
  6191  00770E  EF89  F03B         	line	134
  6192                           	
  6193                           l1117:
  6194  007712                     	line	127
  6195                           	
  6196                           l2233:
  6197  007712                     	
  6198                           	btfss	((c:___fldiv@b+2)),c,(23)&7
  6199  007712  AE25               	goto	u1981
  6200  007714  EF8E  F03B         	goto	u1980
  6201  007718  EF90  F03B         u1981:
  6202  00771C                     	goto	l2227
  6203  00771C  EF72  F03B         u1980:
  6204  007720                     	goto	l2235
  6205  007720  EF92  F03B         	
  6206                           l1120:
  6207  007724                     	line	139
  6208                           	
  6209                           l2235:
  6210  007724                     	movlw	low(0)
  6211  007724  0E00               	movwf	((c:___fldiv@aexp)),c
  6212  007726  6E3B               	line	140
  6213                           	
  6214                           l2237:
  6215  007728                     	
  6216                           	btfss	((c:___fldiv@grs+3)),c,(31)&7
  6217  007728  AE39               	goto	u1991
  6218  00772A  EF99  F03B         	goto	u1990
  6219  00772E  EF9B  F03B         u1991:
  6220  007732                     	goto	l1121
  6221  007732  EFC3  F03B         u1990:
  6222  007736                     	line	141
  6223                           	
  6224                           l2239:
  6225  007736                     	movlw	0FFh
  6226  007736  0EFF               	andwf	((c:___fldiv@grs)),c,w
  6227  007738  1436               	movwf	(??___fldiv+0+0)&0ffh,c
  6228  00773A  6E2B               	movlw	0FFh
  6229  00773C  0EFF               	andwf	((c:___fldiv@grs+1)),c,w
  6230  00773E  1437               	movwf	1+(??___fldiv+0+0)&0ffh,c
  6231  007740  6E2C               	
  6232                           	movlw	0FFh
  6233  007742  0EFF               	andwf	((c:___fldiv@grs+2)),c,w
  6234  007744  1438               	movwf	2+(??___fldiv+0+0)&0ffh,c
  6235  007746  6E2D               	
  6236                           	movlw	07Fh
  6237  007748  0E7F               	andwf	((c:___fldiv@grs+3)),c,w
  6238  00774A  1439               	movwf	3+(??___fldiv+0+0)&0ffh,c
  6239  00774C  6E2E               	movf	(??___fldiv+0+0),c,w
  6240  00774E  502B               iorwf	(??___fldiv+0+1),c,w
  6241  007750  102C               iorwf	(??___fldiv+0+2),c,w
  6242  007752  102D               iorwf	(??___fldiv+0+3),c,w
  6243  007754  102E               	btfsc	status,2
  6244  007756  B4D8               	goto	u2001
  6245  007758  EFB0  F03B         	goto	u2000
  6246  00775C  EFB2  F03B         
  6247                           u2001:
  6248  007760                     	goto	l1122
  6249  007760  EFB6  F03B         u2000:
  6250  007764                     	line	142
  6251                           	
  6252                           l2241:
  6253  007764                     	movlw	low(01h)
  6254  007764  0E01               	movwf	((c:___fldiv@aexp)),c
  6255  007766  6E3B               	line	143
  6256                           	goto	l1121
  6257  007768  EFC3  F03B         	line	144
  6258                           	
  6259                           l1122:
  6260  00776C                     	line	145
  6261                           	
  6262                           	btfss	((c:___fldiv@b)),c,(0)&7
  6263  00776C  A023               	goto	u2011
  6264  00776E  EFBB  F03B         	goto	u2010
  6265  007772  EFBD  F03B         u2011:
  6266  007776                     	goto	l1121
  6267  007776  EFC3  F03B         u2010:
  6268  00777A                     	line	146
  6269                           	
  6270                           l2243:
  6271  00777A                     	movlw	low(01h)
  6272  00777A  0E01               	movwf	((c:___fldiv@aexp)),c
  6273  00777C  6E3B               	goto	l1121
  6274  00777E  EFC3  F03B         	line	147
  6275                           	
  6276                           l1124:
  6277  007782                     	goto	l1121
  6278  007782  EFC3  F03B         	line	148
  6279                           	
  6280                           l1123:
  6281  007786                     	line	149
  6282                           	
  6283                           l1121:
  6284  007786                     	line	150
  6285                           	movf	((c:___fldiv@aexp)),c,w
  6286  007786  503B               	btfsc	status,2
  6287  007788  B4D8               	goto	u2021
  6288  00778A  EFC9  F03B         	goto	u2020
  6289  00778E  EFCB  F03B         u2021:
  6290  007792                     	goto	l2253
  6291  007792  EFF3  F03B         u2020:
  6292  007796                     	line	151
  6293                           	
  6294                           l2245:
  6295  007796                     	movlw	low(01h)
  6296  007796  0E01               	addwf	((c:___fldiv@b)),c
  6297  007798  2623               	movlw	0
  6298  00779A  0E00               	addwfc	((c:___fldiv@b+1)),c
  6299  00779C  2224               	addwfc	((c:___fldiv@b+2)),c
  6300  00779E  2225               	addwfc	((c:___fldiv@b+3)),c
  6301  0077A0  2226               	line	152
  6302                           	
  6303                           l2247:
  6304  0077A2                     	
  6305                           	btfss	((c:___fldiv@b+3)),c,(24)&7
  6306  0077A2  A026               	goto	u2031
  6307  0077A4  EFD6  F03B         	goto	u2030
  6308  0077A8  EFD8  F03B         u2031:
  6309  0077AC                     	goto	l2253
  6310  0077AC  EFF3  F03B         u2030:
  6311  0077B0                     	line	153
  6312                           	
  6313                           l2249:
  6314  0077B0                     	movff	(c:___fldiv@b),??___fldiv+0+0
  6315  0077B0  C023  F02B         	movff	(c:___fldiv@b+1),??___fldiv+0+0+1
  6316  0077B4  C024  F02C         	movff	(c:___fldiv@b+2),??___fldiv+0+0+2
  6317  0077B8  C025  F02D         	movff	(c:___fldiv@b+3),??___fldiv+0+0+3
  6318  0077BC  C026  F02E         	rlcf	(??___fldiv+0+3),c,w
  6319  0077C0  342E               	rrcf	(??___fldiv+0+3),c
  6320  0077C2  322E               	rrcf	(??___fldiv+0+2),c
  6321  0077C4  322D               	rrcf	(??___fldiv+0+1),c
  6322  0077C6  322C               	rrcf	(??___fldiv+0+0),c
  6323  0077C8  322B               	movff	??___fldiv+0+0,(c:___fldiv@b)
  6324  0077CA  C02B  F023         	movff	??___fldiv+0+1,(c:___fldiv@b+1)
  6325  0077CE  C02C  F024         	movff	??___fldiv+0+2,(c:___fldiv@b+2)
  6326  0077D2  C02D  F025         	movff	??___fldiv+0+3,(c:___fldiv@b+3)
  6327  0077D6  C02E  F026         	line	154
  6328                           	
  6329                           l2251:
  6330  0077DA                     	infsnz	((c:___fldiv@new_exp)),c
  6331  0077DA  4A34               	incf	((c:___fldiv@new_exp+1)),c
  6332  0077DC  2A35               	goto	l2253
  6333  0077DE  EFF3  F03B         	line	155
  6334                           	
  6335                           l1126:
  6336  0077E2                     	goto	l2253
  6337  0077E2  EFF3  F03B         	line	156
  6338                           	
  6339                           l1125:
  6340  0077E6                     	line	159
  6341                           	
  6342                           l2253:
  6343  0077E6                     	btfsc	((c:___fldiv@new_exp+1)),c,7
  6344  0077E6  BE35               	goto	u2041
  6345  0077E8  EFFE  F03B         	movf	((c:___fldiv@new_exp+1)),c,w
  6346  0077EC  5035               	bnz	u2040
  6347  0077EE  E108               	incf	((c:___fldiv@new_exp)),c,w
  6348  0077F0  2834               	btfss	status,0
  6349  0077F2  A0D8               	goto	u2041
  6350  0077F4  EFFE  F03B         	goto	u2040
  6351  0077F8  EF00  F03C         
  6352                           u2041:
  6353  0077FC                     	goto	l2257
  6354  0077FC  EF0D  F03C         u2040:
  6355  007800                     	line	160
  6356                           	
  6357                           l2255:
  6358  007800                     	movlw	high(0FFh)
  6359  007800  0E00               	movwf	((c:___fldiv@new_exp+1)),c
  6360  007802  6E35               	setf	((c:___fldiv@new_exp)),c
  6361  007804  6834               	line	161
  6362                           	movlw	low(0)
  6363  007806  0E00               	movwf	((c:___fldiv@b)),c
  6364  007808  6E23               	movlw	high(0)
  6365  00780A  0E00               	movwf	((c:___fldiv@b+1)),c
  6366  00780C  6E24               	movlw	low highword(0)
  6367  00780E  0E00               	movwf	((c:___fldiv@b+2)),c
  6368  007810  6E25               	movlw	high highword(0)
  6369  007812  0E00               	movwf	((c:___fldiv@b+3)),c
  6370  007814  6E26               	goto	l2257
  6371  007816  EF0D  F03C         	line	162
  6372                           	
  6373                           l1127:
  6374  00781A                     	line	165
  6375                           	
  6376                           l2257:
  6377  00781A                     	btfsc	((c:___fldiv@new_exp+1)),c,7
  6378  00781A  BE35               	goto	u2050
  6379  00781C  EF1A  F03C         	movf	((c:___fldiv@new_exp+1)),c,w
  6380  007820  5035               	bnz	u2051
  6381  007822  E106               	decf	((c:___fldiv@new_exp)),c,w
  6382  007824  0434               	btfsc	status,0
  6383  007826  B0D8               	goto	u2051
  6384  007828  EF18  F03C         	goto	u2050
  6385  00782C  EF1A  F03C         
  6386                           u2051:
  6387  007830                     	goto	l2261
  6388  007830  EF2A  F03C         u2050:
  6389  007834                     	line	166
  6390                           	
  6391                           l2259:
  6392  007834                     	movlw	high(0)
  6393  007834  0E00               	movwf	((c:___fldiv@new_exp+1)),c
  6394  007836  6E35               	movlw	low(0)
  6395  007838  0E00               	movwf	((c:___fldiv@new_exp)),c
  6396  00783A  6E34               	line	167
  6397                           	movlw	low(0)
  6398  00783C  0E00               	movwf	((c:___fldiv@b)),c
  6399  00783E  6E23               	movlw	high(0)
  6400  007840  0E00               	movwf	((c:___fldiv@b+1)),c
  6401  007842  6E24               	movlw	low highword(0)
  6402  007844  0E00               	movwf	((c:___fldiv@b+2)),c
  6403  007846  6E25               	movlw	high highword(0)
  6404  007848  0E00               	movwf	((c:___fldiv@b+3)),c
  6405  00784A  6E26               	line	169
  6406                           	movlw	low(0)
  6407  00784C  0E00               	movwf	((c:___fldiv@sign)),c
  6408  00784E  6E33               	goto	l2261
  6409  007850  EF2A  F03C         	line	170
  6410                           	
  6411                           l1128:
  6412  007854                     	line	173
  6413                           	
  6414                           l2261:
  6415  007854                     	movff	(c:___fldiv@new_exp),(c:___fldiv@bexp)
  6416  007854  C034  F03A         	line	175
  6417                           	
  6418                           l2263:
  6419  007858                     	
  6420                           	btfss	((c:___fldiv@bexp)),c,(0)&7
  6421  007858  A03A               	goto	u2061
  6422  00785A  EF31  F03C         	goto	u2060
  6423  00785E  EF33  F03C         u2061:
  6424  007862                     	goto	l2267
  6425  007862  EF36  F03C         u2060:
  6426  007866                     	line	176
  6427                           	
  6428                           l2265:
  6429  007866                     	bsf	(0+(7/8)+0+((c:___fldiv@b)+02h)),c,(7)&7
  6430  007866  8E25               	line	177
  6431                           	goto	l2269
  6432  007868  EF39  F03C         	line	179
  6433                           	
  6434                           l1129:
  6435  00786C                     	line	180
  6436                           	
  6437                           l2267:
  6438  00786C                     	bcf	(0+(7/8)+0+((c:___fldiv@b)+02h)),c,(7)&7
  6439  00786C  9E25               	goto	l2269
  6440  00786E  EF39  F03C         	line	181
  6441                           	
  6442                           l1130:
  6443  007872                     	line	182
  6444                           	
  6445                           l2269:
  6446  007872                     	bcf	status,0
  6447  007872  90D8               	rrcf	((c:___fldiv@bexp)),c,w
  6448  007874  303A               	movwf	(0+((c:___fldiv@b)+03h)),c
  6449  007876  6E26               	line	183
  6450                           	
  6451                           l2271:
  6452  007878                     	movf	((c:___fldiv@sign)),c,w
  6453  007878  5033               	iorwf	(0+((c:___fldiv@b)+03h)),c
  6454  00787A  1226               	line	184
  6455                           	
  6456                           l2273:
  6457  00787C                     	movff	(c:___fldiv@b),(c:?___fldiv)
  6458  00787C  C023  F023         	movff	(c:___fldiv@b+1),(c:?___fldiv+1)
  6459  007880  C024  F024         	movff	(c:___fldiv@b+2),(c:?___fldiv+2)
  6460  007884  C025  F025         	movff	(c:___fldiv@b+3),(c:?___fldiv+3)
  6461  007888  C026  F026         	goto	l1108
  6462  00788C  EF48  F03C         	
  6463                           l2275:
  6464  007890                     	line	185
  6465                           	
  6466                           l1108:
  6467  007890                     	return	;funcret
  6468  007890  0012               	opt stack 0
  6469                           GLOBAL	__end_of___fldiv
  6470                           	__end_of___fldiv:
  6471  007892                     	signat	___fldiv,8316
  6472                           	global	_PWM_Max_Duty
  6473                           
  6474 ;; *************** function _PWM_Max_Duty *****************
  6475 ;; Defined at:
  6476 ;;		line 491 in file "main.c"
  6477 ;; Parameters:    Size  Location     Type
  6478 ;;		None
  6479 ;; Auto vars:     Size  Location     Type
  6480 ;;		None
  6481 ;; Return value:  Size  Location     Type
  6482 ;;                  2   14[COMRAM] int 
  6483 ;; Registers used:
  6484 ;;		wreg, status,2, status,0, cstack
  6485 ;; Tracked objects:
  6486 ;;		On entry : 0/0
  6487 ;;		On exit  : 0/0
  6488 ;;		Unchanged: 0/0
  6489 ;; Data sizes:     COMRAM   BANK0   BANK1   BANK2   BANK3   BANK4   BANK5   BANK6   BANK7
  6490 ;;      Params:         2       0       0       0       0       0       0       0       0
  6491 ;;      Locals:         0       0       0       0       0       0       0       0       0
  6492 ;;      Temps:          4       0       0       0       0       0       0       0       0
  6493 ;;      Totals:         6       0       0       0       0       0       0       0       0
  6494 ;;Total ram usage:        6 bytes
  6495 ;; Hardware stack levels used:    1
  6496 ;; Hardware stack levels required when called:    2
  6497 ;; This function calls:
  6498 ;;		___aldiv
  6499 ;; This function is called by:
  6500 ;;		_analogWrite
  6501 ;; This function uses a non-reentrant model
  6502 ;;
  6503                           psect	text13,class=CODE,space=0,reloc=2,group=0
  6504                           	file	"main.c"
  6505                           	line	491
  6506                           global __ptext13
  6507                           __ptext13:
  6508  006666                     psect	text13
  6509                           	file	"main.c"
  6510                           	line	491
  6511                           	global	__size_of_PWM_Max_Duty
  6512                           	__size_of_PWM_Max_Duty	equ	__end_of_PWM_Max_Duty-_PWM_Max_Duty
  6513  0000                     	
  6514                           _PWM_Max_Duty:
  6515  006666                     ;incstack = 0
  6516                           	opt	stack 26
  6517                           	line	493
  6518                           	
  6519                           l2123:
  6520  006666                     ;main.c: 493:     return (24000000 / (freq * 16));
  6521                           	movlw	low(016E3600h)
  6522  006666  0E00               	movwf	((c:___aldiv@dividend)),c
  6523  006668  6E01               	movlw	high(016E3600h)
  6524  00666A  0E36               	movwf	((c:___aldiv@dividend+1)),c
  6525  00666C  6E02               	movlw	low highword(016E3600h)
  6526  00666E  0E6E               	movwf	((c:___aldiv@dividend+2)),c
  6527  006670  6E03               	movlw	high highword(016E3600h)
  6528  006672  0E01               	movwf	((c:___aldiv@dividend+3)),c
  6529  006674  6E04               	movff	(_freq),??_PWM_Max_Duty+0+0
  6530  006676  C082  F011         	movff	(_freq+1),??_PWM_Max_Duty+0+0+1
  6531  00667A  C083  F012         	movff	(_freq+2),??_PWM_Max_Duty+0+0+2
  6532  00667E  C084  F013         	movff	(_freq+3),??_PWM_Max_Duty+0+0+3
  6533  006682  C085  F014         	movlw	04h
  6534  006686  0E04               u1795:
  6535  006688                     	bcf	status,0
  6536  006688  90D8               	rlcf	(??_PWM_Max_Duty+0+0),c
  6537  00668A  3611               	rlcf	(??_PWM_Max_Duty+0+1),c
  6538  00668C  3612               	rlcf	(??_PWM_Max_Duty+0+2),c
  6539  00668E  3613               	rlcf	(??_PWM_Max_Duty+0+3),c
  6540  006690  3614               	decfsz	wreg
  6541  006692  2EE8               	goto	u1795
  6542  006694  EF44  F033         	movff	??_PWM_Max_Duty+0+0,(c:___aldiv@divisor)
  6543  006698  C011  F005         	movff	??_PWM_Max_Duty+0+1,(c:___aldiv@divisor+1)
  6544  00669C  C012  F006         	movff	??_PWM_Max_Duty+0+2,(c:___aldiv@divisor+2)
  6545  0066A0  C013  F007         	movff	??_PWM_Max_Duty+0+3,(c:___aldiv@divisor+3)
  6546  0066A4  C014  F008         	call	___aldiv	;wreg free
  6547  0066A8  EC46  F035         	movff	0+?___aldiv,(c:?_PWM_Max_Duty)
  6548  0066AC  C001  F00F         	movff	1+?___aldiv,(c:?_PWM_Max_Duty+1)
  6549  0066B0  C002  F010         	goto	l367
  6550  0066B4  EF5C  F033         	
  6551                           l2125:
  6552  0066B8                     	line	494
  6553                           	
  6554                           l367:
  6555  0066B8                     	return	;funcret
  6556  0066B8  0012               	opt stack 0
  6557                           GLOBAL	__end_of_PWM_Max_Duty
  6558                           	__end_of_PWM_Max_Duty:
  6559  0066BA                     	signat	_PWM_Max_Duty,90
  6560                           	global	_analogRead
  6561                           
  6562 ;; *************** function _analogRead *****************
  6563 ;; Defined at:
  6564 ;;		line 284 in file "main.c"
  6565 ;; Parameters:    Size  Location     Type
  6566 ;;  pin             1    wreg     unsigned char 
  6567 ;; Auto vars:     Size  Location     Type
  6568 ;;  pin             1    4[COMRAM] unsigned char 
  6569 ;; Return value:  Size  Location     Type
  6570 ;;                  2    0[COMRAM] unsigned int 
  6571 ;; Registers used:
  6572 ;;		wreg, status,2, status,0
  6573 ;; Tracked objects:
  6574 ;;		On entry : 0/0
  6575 ;;		On exit  : 0/0
  6576 ;;		Unchanged: 0/0
  6577 ;; Data sizes:     COMRAM   BANK0   BANK1   BANK2   BANK3   BANK4   BANK5   BANK6   BANK7
  6578 ;;      Params:         2       0       0       0       0       0       0       0       0
  6579 ;;      Locals:         1       0       0       0       0       0       0       0       0
  6580 ;;      Temps:          2       0       0       0       0       0       0       0       0
  6581 ;;      Totals:         5       0       0       0       0       0       0       0       0
  6582 ;;Total ram usage:        5 bytes
  6583 ;; Hardware stack levels used:    1
  6584 ;; Hardware stack levels required when called:    1
  6585 ;; This function calls:
  6586 ;;		Nothing
  6587 ;; This function is called by:
  6588 ;;		_loop
  6589 ;; This function uses a non-reentrant model
  6590 ;;
  6591                           psect	text14,class=CODE,space=0,reloc=2,group=0
  6592                           	line	284
  6593                           global __ptext14
  6594                           __ptext14:
  6595  00683E                     psect	text14
  6596                           	file	"main.c"
  6597                           	line	284
  6598                           	global	__size_of_analogRead
  6599                           	__size_of_analogRead	equ	__end_of_analogRead-_analogRead
  6600  0000                     	
  6601                           _analogRead:
  6602  00683E                     ;incstack = 0
  6603                           	opt	stack 28
  6604                           ;analogRead@pin stored from wreg
  6605                           	movwf	((c:analogRead@pin)),c
  6606  00683E  6E05               	line	286
  6607                           	
  6608                           l2549:
  6609  006840                     ;main.c: 284: unsigned int analogRead(char pin);main.c: 285: {;main.c: 286:     switch(p
                                 in)
  6610                           	goto	l2585
  6611  006840  EF94  F034         	line	288
  6612                           ;main.c: 287:     {;main.c: 288:         case 0:
  6613                           	
  6614                           l269:
  6615  006844                     	line	289
  6616                           	
  6617                           l2551:
  6618  006844                     ;main.c: 289:             ADCON0 = 0x03;
  6619                           	movlw	low(03h)
  6620  006844  0E03               	movwf	((c:4034)),c	;volatile
  6621  006846  6EC2               	line	290
  6622                           ;main.c: 290:             while(ADCON0bits.GODONE != 0)
  6623                           	goto	l270
  6624  006848  EF26  F034         	
  6625                           l271:
  6626  00684C                     	line	291
  6627                           ;main.c: 291:             {}
  6628                           	
  6629                           l270:
  6630  00684C                     	line	290
  6631                           ;main.c: 290:             while(ADCON0bits.GODONE != 0)
  6632                           	btfsc	((c:4034)),c,1	;volatile
  6633  00684C  B2C2               	goto	u2701
  6634  00684E  EF2B  F034         	goto	u2700
  6635  006852  EF2D  F034         u2701:
  6636  006856                     	goto	l270
  6637  006856  EF26  F034         u2700:
  6638  00685A                     	goto	l2553
  6639  00685A  EF2F  F034         	
  6640                           l272:
  6641  00685E                     	line	292
  6642                           	
  6643                           l2553:
  6644  00685E                     ;main.c: 292:             return (ADRESH << 8)+ ADRESL;
  6645                           	movf	((c:4036)),c,w	;volatile
  6646  00685E  50C4               	movwf	(??_analogRead+0+0+1)&0ffh,c
  6647  006860  6E04               	clrf	(??_analogRead+0+0)&0ffh,c
  6648  006862  6A03               	movf	((c:4035)),c,w	;volatile
  6649  006864  50C3               	addwf	(??_analogRead+0+0),c,w
  6650  006866  2403               	movwf	((c:?_analogRead)),c
  6651  006868  6E01               	movlw	0
  6652  00686A  0E00               	addwfc	(??_analogRead+0+1),c,w
  6653  00686C  2004               	movwf	1+((c:?_analogRead)),c
  6654  00686E  6E02               	goto	l273
  6655  006870  EFB1  F034         	
  6656                           l2555:
  6657  006874                     	goto	l273
  6658  006874  EFB1  F034         	line	293
  6659                           	
  6660                           l2557:
  6661  006878                     ;main.c: 293:             break;
  6662                           	goto	l273
  6663  006878  EFB1  F034         	line	294
  6664                           ;main.c: 294:         case 1:
  6665                           	
  6666                           l275:
  6667  00687C                     	line	295
  6668                           	
  6669                           l2559:
  6670  00687C                     ;main.c: 295:             ADCON0 = 0x07;
  6671                           	movlw	low(07h)
  6672  00687C  0E07               	movwf	((c:4034)),c	;volatile
  6673  00687E  6EC2               	line	296
  6674                           ;main.c: 296:             while(ADCON0bits.GODONE != 0)
  6675                           	goto	l276
  6676  006880  EF42  F034         	
  6677                           l277:
  6678  006884                     	line	297
  6679                           ;main.c: 297:             {}
  6680                           	
  6681                           l276:
  6682  006884                     	line	296
  6683                           ;main.c: 296:             while(ADCON0bits.GODONE != 0)
  6684                           	btfsc	((c:4034)),c,1	;volatile
  6685  006884  B2C2               	goto	u2711
  6686  006886  EF47  F034         	goto	u2710
  6687  00688A  EF49  F034         u2711:
  6688  00688E                     	goto	l276
  6689  00688E  EF42  F034         u2710:
  6690  006892                     	goto	l2561
  6691  006892  EF4B  F034         	
  6692                           l278:
  6693  006896                     	line	298
  6694                           	
  6695                           l2561:
  6696  006896                     ;main.c: 298:             return (ADRESH << 8)+ ADRESL;
  6697                           	movf	((c:4036)),c,w	;volatile
  6698  006896  50C4               	movwf	(??_analogRead+0+0+1)&0ffh,c
  6699  006898  6E04               	clrf	(??_analogRead+0+0)&0ffh,c
  6700  00689A  6A03               	movf	((c:4035)),c,w	;volatile
  6701  00689C  50C3               	addwf	(??_analogRead+0+0),c,w
  6702  00689E  2403               	movwf	((c:?_analogRead)),c
  6703  0068A0  6E01               	movlw	0
  6704  0068A2  0E00               	addwfc	(??_analogRead+0+1),c,w
  6705  0068A4  2004               	movwf	1+((c:?_analogRead)),c
  6706  0068A6  6E02               	goto	l273
  6707  0068A8  EFB1  F034         	
  6708                           l2563:
  6709  0068AC                     	goto	l273
  6710  0068AC  EFB1  F034         	line	299
  6711                           	
  6712                           l2565:
  6713  0068B0                     ;main.c: 299:             break;
  6714                           	goto	l273
  6715  0068B0  EFB1  F034         	line	300
  6716                           ;main.c: 300:         case 2:
  6717                           	
  6718                           l279:
  6719  0068B4                     	line	301
  6720                           	
  6721                           l2567:
  6722  0068B4                     ;main.c: 301:             ADCON0 = 0x0B;
  6723                           	movlw	low(0Bh)
  6724  0068B4  0E0B               	movwf	((c:4034)),c	;volatile
  6725  0068B6  6EC2               	line	302
  6726                           ;main.c: 302:             while(ADCON0bits.GODONE != 0)
  6727                           	goto	l280
  6728  0068B8  EF5E  F034         	
  6729                           l281:
  6730  0068BC                     	line	303
  6731                           ;main.c: 303:             {}
  6732                           	
  6733                           l280:
  6734  0068BC                     	line	302
  6735                           ;main.c: 302:             while(ADCON0bits.GODONE != 0)
  6736                           	btfsc	((c:4034)),c,1	;volatile
  6737  0068BC  B2C2               	goto	u2721
  6738  0068BE  EF63  F034         	goto	u2720
  6739  0068C2  EF65  F034         u2721:
  6740  0068C6                     	goto	l280
  6741  0068C6  EF5E  F034         u2720:
  6742  0068CA                     	goto	l2569
  6743  0068CA  EF67  F034         	
  6744                           l282:
  6745  0068CE                     	line	304
  6746                           	
  6747                           l2569:
  6748  0068CE                     ;main.c: 304:             return (ADRESH << 8)+ ADRESL;
  6749                           	movf	((c:4036)),c,w	;volatile
  6750  0068CE  50C4               	movwf	(??_analogRead+0+0+1)&0ffh,c
  6751  0068D0  6E04               	clrf	(??_analogRead+0+0)&0ffh,c
  6752  0068D2  6A03               	movf	((c:4035)),c,w	;volatile
  6753  0068D4  50C3               	addwf	(??_analogRead+0+0),c,w
  6754  0068D6  2403               	movwf	((c:?_analogRead)),c
  6755  0068D8  6E01               	movlw	0
  6756  0068DA  0E00               	addwfc	(??_analogRead+0+1),c,w
  6757  0068DC  2004               	movwf	1+((c:?_analogRead)),c
  6758  0068DE  6E02               	goto	l273
  6759  0068E0  EFB1  F034         	
  6760                           l2571:
  6761  0068E4                     	goto	l273
  6762  0068E4  EFB1  F034         	line	305
  6763                           	
  6764                           l2573:
  6765  0068E8                     ;main.c: 305:             break;
  6766                           	goto	l273
  6767  0068E8  EFB1  F034         	line	306
  6768                           ;main.c: 306:         case 3:
  6769                           	
  6770                           l283:
  6771  0068EC                     	line	307
  6772                           	
  6773                           l2575:
  6774  0068EC                     ;main.c: 307:             ADCON0 = 0x0F;
  6775                           	movlw	low(0Fh)
  6776  0068EC  0E0F               	movwf	((c:4034)),c	;volatile
  6777  0068EE  6EC2               	line	308
  6778                           ;main.c: 308:             while(ADCON0bits.GODONE != 0)
  6779                           	goto	l284
  6780  0068F0  EF7A  F034         	
  6781                           l285:
  6782  0068F4                     	line	309
  6783                           ;main.c: 309:             {}
  6784                           	
  6785                           l284:
  6786  0068F4                     	line	308
  6787                           ;main.c: 308:             while(ADCON0bits.GODONE != 0)
  6788                           	btfsc	((c:4034)),c,1	;volatile
  6789  0068F4  B2C2               	goto	u2731
  6790  0068F6  EF7F  F034         	goto	u2730
  6791  0068FA  EF81  F034         u2731:
  6792  0068FE                     	goto	l284
  6793  0068FE  EF7A  F034         u2730:
  6794  006902                     	goto	l2577
  6795  006902  EF83  F034         	
  6796                           l286:
  6797  006906                     	line	310
  6798                           	
  6799                           l2577:
  6800  006906                     ;main.c: 310:             return (ADRESH << 8)+ ADRESL;
  6801                           	movf	((c:4036)),c,w	;volatile
  6802  006906  50C4               	movwf	(??_analogRead+0+0+1)&0ffh,c
  6803  006908  6E04               	clrf	(??_analogRead+0+0)&0ffh,c
  6804  00690A  6A03               	movf	((c:4035)),c,w	;volatile
  6805  00690C  50C3               	addwf	(??_analogRead+0+0),c,w
  6806  00690E  2403               	movwf	((c:?_analogRead)),c
  6807  006910  6E01               	movlw	0
  6808  006912  0E00               	addwfc	(??_analogRead+0+1),c,w
  6809  006914  2004               	movwf	1+((c:?_analogRead)),c
  6810  006916  6E02               	goto	l273
  6811  006918  EFB1  F034         	
  6812                           l2579:
  6813  00691C                     	goto	l273
  6814  00691C  EFB1  F034         	line	311
  6815                           	
  6816                           l2581:
  6817  006920                     ;main.c: 311:             break;
  6818                           	goto	l273
  6819  006920  EFB1  F034         	line	312
  6820                           	
  6821                           l2583:
  6822  006924                     ;main.c: 312:     }
  6823                           	goto	l273
  6824  006924  EFB1  F034         	
  6825                           l268:
  6826  006928                     	
  6827                           l2585:
  6828  006928                     	movf	((c:analogRead@pin)),c,w
  6829  006928  5005               	movwf	(??_analogRead+0+0)&0ffh,c
  6830  00692A  6E03               	clrf	(??_analogRead+0+0+1)&0ffh,c
  6831  00692C  6A04               
  6832                           	; Switch on 2 bytes has been partitioned into a top level switch of size 1, and 1 sub-s
                                 witches
  6833                           ; Switch size 1, requested type "space"
  6834                           ; Number of cases is 1, Range of values is 0 to 0
  6835                           ; switch strategies available:
  6836                           ; Name         Instructions Cycles
  6837                           ; simple_byte            4     3 (average)
  6838                           ;	Chosen strategy is simple_byte
  6839                           
  6840                           	movf ??_analogRead+0+1,c,w
  6841  00692E  5004               	xorlw	0^0	; case 0
  6842  006930  0A00               	skipnz
  6843  006932  B4D8               	goto	l3079
  6844  006934  EF9E  F034         	goto	l273
  6845  006938  EFB1  F034         	
  6846                           l3079:
  6847  00693C                     ; Switch size 1, requested type "space"
  6848                           ; Number of cases is 4, Range of values is 0 to 3
  6849                           ; switch strategies available:
  6850                           ; Name         Instructions Cycles
  6851                           ; simple_byte           13     7 (average)
  6852                           ;	Chosen strategy is simple_byte
  6853                           
  6854                           	movf ??_analogRead+0+0,c,w
  6855  00693C  5003               	xorlw	0^0	; case 0
  6856  00693E  0A00               	skipnz
  6857  006940  B4D8               	goto	l2551
  6858  006942  EF22  F034         	xorlw	1^0	; case 1
  6859  006946  0A01               	skipnz
  6860  006948  B4D8               	goto	l2559
  6861  00694A  EF3E  F034         	xorlw	2^1	; case 2
  6862  00694E  0A03               	skipnz
  6863  006950  B4D8               	goto	l2567
  6864  006952  EF5A  F034         	xorlw	3^2	; case 3
  6865  006956  0A01               	skipnz
  6866  006958  B4D8               	goto	l2575
  6867  00695A  EF76  F034         	goto	l273
  6868  00695E  EFB1  F034         
  6869                           	
  6870                           l274:
  6871  006962                     	line	313
  6872                           	
  6873                           l273:
  6874  006962                     	return	;funcret
  6875  006962  0012               	opt stack 0
  6876                           GLOBAL	__end_of_analogRead
  6877                           	__end_of_analogRead:
  6878  006964                     	signat	_analogRead,4218
  6879                           	global	_SerialWrite
  6880                           
  6881 ;; *************** function _SerialWrite *****************
  6882 ;; Defined at:
  6883 ;;		line 603 in file "main.c"
  6884 ;; Parameters:    Size  Location     Type
  6885 ;;  dataWrite       1    wreg     unsigned char 
  6886 ;; Auto vars:     Size  Location     Type
  6887 ;;  dataWrite       1    0[COMRAM] unsigned char 
  6888 ;; Return value:  Size  Location     Type
  6889 ;;                  1    wreg      void 
  6890 ;; Registers used:
  6891 ;;		wreg
  6892 ;; Tracked objects:
  6893 ;;		On entry : 0/0
  6894 ;;		On exit  : 0/0
  6895 ;;		Unchanged: 0/0
  6896 ;; Data sizes:     COMRAM   BANK0   BANK1   BANK2   BANK3   BANK4   BANK5   BANK6   BANK7
  6897 ;;      Params:         0       0       0       0       0       0       0       0       0
  6898 ;;      Locals:         1       0       0       0       0       0       0       0       0
  6899 ;;      Temps:          0       0       0       0       0       0       0       0       0
  6900 ;;      Totals:         1       0       0       0       0       0       0       0       0
  6901 ;;Total ram usage:        1 bytes
  6902 ;; Hardware stack levels used:    1
  6903 ;; Hardware stack levels required when called:    1
  6904 ;; This function calls:
  6905 ;;		Nothing
  6906 ;; This function is called by:
  6907 ;;		_loop
  6908 ;;		_SerialWriteText
  6909 ;; This function uses a non-reentrant model
  6910 ;;
  6911                           psect	text15,class=CODE,space=0,reloc=2,group=0
  6912                           	line	603
  6913                           global __ptext15
  6914                           __ptext15:
  6915  0064CE                     psect	text15
  6916                           	file	"main.c"
  6917                           	line	603
  6918                           	global	__size_of_SerialWrite
  6919                           	__size_of_SerialWrite	equ	__end_of_SerialWrite-_SerialWrite
  6920  0000                     	
  6921                           _SerialWrite:
  6922  0064CE                     ;incstack = 0
  6923                           	opt	stack 28
  6924                           ;SerialWrite@dataWrite stored from wreg
  6925                           	movwf	((c:SerialWrite@dataWrite)),c
  6926  0064CE  6E01               	line	605
  6927                           	
  6928                           l2633:
  6929  0064D0                     ;main.c: 603: void SerialWrite(char dataWrite);main.c: 604: {;main.c: 605:     while(!TR
                                 MT);
  6930                           	goto	l415
  6931  0064D0  EF6A  F032         	
  6932                           l416:
  6933  0064D4                     	
  6934                           l415:
  6935  0064D4                     	btfss	c:(32097/8),(32097)&7	;volatile
  6936  0064D4  A2AC               	goto	u2781
  6937  0064D6  EF6F  F032         	goto	u2780
  6938  0064DA  EF71  F032         u2781:
  6939  0064DE                     	goto	l415
  6940  0064DE  EF6A  F032         u2780:
  6941  0064E2                     	goto	l2635
  6942  0064E2  EF73  F032         	
  6943                           l417:
  6944  0064E6                     	line	606
  6945                           	
  6946                           l2635:
  6947  0064E6                     ;main.c: 606:     TXREG = dataWrite;
  6948                           	movff	(c:SerialWrite@dataWrite),(c:4013)	;volatile
  6949  0064E6  C001  FFAD         	line	607
  6950                           	
  6951                           l418:
  6952  0064EA                     	return	;funcret
  6953  0064EA  0012               	opt stack 0
  6954                           GLOBAL	__end_of_SerialWrite
  6955                           	__end_of_SerialWrite:
  6956  0064EC                     	signat	_SerialWrite,4217
  6957                           	global	_SerialRead
  6958                           
  6959 ;; *************** function _SerialRead *****************
  6960 ;; Defined at:
  6961 ;;		line 622 in file "main.c"
  6962 ;; Parameters:    Size  Location     Type
  6963 ;;		None
  6964 ;; Auto vars:     Size  Location     Type
  6965 ;;		None
  6966 ;; Return value:  Size  Location     Type
  6967 ;;                  1    wreg      unsigned char 
  6968 ;; Registers used:
  6969 ;;		wreg, status,2
  6970 ;; Tracked objects:
  6971 ;;		On entry : 0/0
  6972 ;;		On exit  : 0/0
  6973 ;;		Unchanged: 0/0
  6974 ;; Data sizes:     COMRAM   BANK0   BANK1   BANK2   BANK3   BANK4   BANK5   BANK6   BANK7
  6975 ;;      Params:         0       0       0       0       0       0       0       0       0
  6976 ;;      Locals:         0       0       0       0       0       0       0       0       0
  6977 ;;      Temps:          0       0       0       0       0       0       0       0       0
  6978 ;;      Totals:         0       0       0       0       0       0       0       0       0
  6979 ;;Total ram usage:        0 bytes
  6980 ;; Hardware stack levels used:    1
  6981 ;; Hardware stack levels required when called:    1
  6982 ;; This function calls:
  6983 ;;		Nothing
  6984 ;; This function is called by:
  6985 ;;		_loop
  6986 ;;		_SerialReadText
  6987 ;; This function uses a non-reentrant model
  6988 ;;
  6989                           psect	text16,class=CODE,space=0,reloc=2,group=0
  6990                           	line	622
  6991                           global __ptext16
  6992                           __ptext16:
  6993  0064B0                     psect	text16
  6994                           	file	"main.c"
  6995                           	line	622
  6996                           	global	__size_of_SerialRead
  6997                           	__size_of_SerialRead	equ	__end_of_SerialRead-_SerialRead
  6998  0000                     	
  6999                           _SerialRead:
  7000  0064B0                     ;incstack = 0
  7001                           	opt	stack 28
  7002                           	line	624
  7003                           	
  7004                           l2641:
  7005  0064B0                     ;main.c: 624:     while(!RCIF);
  7006                           	goto	l430
  7007  0064B0  EF5A  F032         	
  7008                           l431:
  7009  0064B4                     	
  7010                           l430:
  7011  0064B4                     	btfss	c:(31989/8),(31989)&7	;volatile
  7012  0064B4  AA9E               	goto	u2791
  7013  0064B6  EF5F  F032         	goto	u2790
  7014  0064BA  EF61  F032         u2791:
  7015  0064BE                     	goto	l430
  7016  0064BE  EF5A  F032         u2790:
  7017  0064C2                     	goto	l2643
  7018  0064C2  EF63  F032         	
  7019                           l432:
  7020  0064C6                     	line	625
  7021                           	
  7022                           l2643:
  7023  0064C6                     ;main.c: 625:     return RCREG;
  7024                           	movf	((c:4014)),c,w	;volatile
  7025  0064C6  50AE               	goto	l433
  7026  0064C8  EF66  F032         	
  7027                           l2645:
  7028  0064CC                     	line	626
  7029                           	
  7030                           l433:
  7031  0064CC                     	return	;funcret
  7032  0064CC  0012               	opt stack 0
  7033                           GLOBAL	__end_of_SerialRead
  7034                           	__end_of_SerialRead:
  7035  0064CE                     	signat	_SerialRead,89
  7036                           	global	_SerialAvailable
  7037                           
  7038 ;; *************** function _SerialAvailable *****************
  7039 ;; Defined at:
  7040 ;;		line 617 in file "main.c"
  7041 ;; Parameters:    Size  Location     Type
  7042 ;;		None
  7043 ;; Auto vars:     Size  Location     Type
  7044 ;;		None
  7045 ;; Return value:  Size  Location     Type
  7046 ;;                  1    wreg      unsigned char 
  7047 ;; Registers used:
  7048 ;;		wreg
  7049 ;; Tracked objects:
  7050 ;;		On entry : 0/0
  7051 ;;		On exit  : 0/0
  7052 ;;		Unchanged: 0/0
  7053 ;; Data sizes:     COMRAM   BANK0   BANK1   BANK2   BANK3   BANK4   BANK5   BANK6   BANK7
  7054 ;;      Params:         0       0       0       0       0       0       0       0       0
  7055 ;;      Locals:         0       0       0       0       0       0       0       0       0
  7056 ;;      Temps:          0       0       0       0       0       0       0       0       0
  7057 ;;      Totals:         0       0       0       0       0       0       0       0       0
  7058 ;;Total ram usage:        0 bytes
  7059 ;; Hardware stack levels used:    1
  7060 ;; Hardware stack levels required when called:    1
  7061 ;; This function calls:
  7062 ;;		Nothing
  7063 ;; This function is called by:
  7064 ;;		_loop
  7065 ;; This function uses a non-reentrant model
  7066 ;;
  7067                           psect	text17,class=CODE,space=0,reloc=2,group=0
  7068                           	line	617
  7069                           global __ptext17
  7070                           __ptext17:
  7071  00648E                     psect	text17
  7072                           	file	"main.c"
  7073                           	line	617
  7074                           	global	__size_of_SerialAvailable
  7075                           	__size_of_SerialAvailable	equ	__end_of_SerialAvailable-_SerialAvailable
  7076  0000                     	
  7077                           _SerialAvailable:
  7078  00648E                     ;incstack = 0
  7079                           	opt	stack 28
  7080                           	line	619
  7081                           	
  7082                           l2637:
  7083  00648E                     ;main.c: 619:     return RCIF;
  7084                           	movlw	0
  7085  00648E  0E00               	btfsc	c:(31989/8),(31989)&7	;volatile
  7086  006490  BA9E               	movlw	1
  7087  006492  0E01               	goto	l427
  7088  006494  EF4C  F032         	
  7089                           l2639:
  7090  006498                     	line	620
  7091                           	
  7092                           l427:
  7093  006498                     	return	;funcret
  7094  006498  0012               	opt stack 0
  7095                           GLOBAL	__end_of_SerialAvailable
  7096                           	__end_of_SerialAvailable:
  7097  00649A                     	signat	_SerialAvailable,89
  7098                           	global	_configuracionInicial
  7099                           
  7100 ;; *************** function _configuracionInicial *****************
  7101 ;; Defined at:
  7102 ;;		line 25 in file "main.c"
  7103 ;; Parameters:    Size  Location     Type
  7104 ;;		None
  7105 ;; Auto vars:     Size  Location     Type
  7106 ;;		None
  7107 ;; Return value:  Size  Location     Type
  7108 ;;                  1    wreg      void 
  7109 ;; Registers used:
  7110 ;;		wreg, status,2, status,0, cstack
  7111 ;; Tracked objects:
  7112 ;;		On entry : 0/0
  7113 ;;		On exit  : 0/0
  7114 ;;		Unchanged: 0/0
  7115 ;; Data sizes:     COMRAM   BANK0   BANK1   BANK2   BANK3   BANK4   BANK5   BANK6   BANK7
  7116 ;;      Params:         0       0       0       0       0       0       0       0       0
  7117 ;;      Locals:         0       0       0       0       0       0       0       0       0
  7118 ;;      Temps:          0       0       0       0       0       0       0       0       0
  7119 ;;      Totals:         0       0       0       0       0       0       0       0       0
  7120 ;;Total ram usage:        0 bytes
  7121 ;; Hardware stack levels used:    1
  7122 ;; Hardware stack levels required when called:    4
  7123 ;; This function calls:
  7124 ;;		_ADCConfig
  7125 ;;		_CCPConfig
  7126 ;;		_PORTAConfig
  7127 ;;		_PORTBConfig
  7128 ;;		_PORTCConfig
  7129 ;;		_PORTDConfig
  7130 ;;		_PORTEConfig
  7131 ;;		_TMR0Config
  7132 ;;		_TMR1Config
  7133 ;; This function is called by:
  7134 ;;		_main
  7135 ;; This function uses a non-reentrant model
  7136 ;;
  7137                           psect	text18,class=CODE,space=0,reloc=2,group=0
  7138                           	line	25
  7139                           global __ptext18
  7140                           __ptext18:
  7141  006530                     psect	text18
  7142                           	file	"main.c"
  7143                           	line	25
  7144                           	global	__size_of_configuracionInicial
  7145                           	__size_of_configuracionInicial	equ	__end_of_configuracionInicial-_configuracionInicial

  7146  0000                     	
  7147                           _configuracionInicial:
  7148  006530                     ;incstack = 0
  7149                           	opt	stack 26
  7150                           	line	27
  7151                           	
  7152                           l2669:
  7153  006530                     ;main.c: 27:     ADCConfig();
  7154                           	call	_ADCConfig	;wreg free
  7155  006530  EC4D  F032         	line	28
  7156                           	
  7157                           l2671:
  7158  006534                     ;main.c: 28:     CCPConfig();
  7159                           	call	_CCPConfig	;wreg free
  7160  006534  ECC3  F032         	line	29
  7161                           	
  7162                           l2673:
  7163  006538                     ;main.c: 29:     PORTAConfig();
  7164                           	call	_PORTAConfig	;wreg free
  7165  006538  EC2E  F032         	line	30
  7166                           	
  7167                           l2675:
  7168  00653C                     ;main.c: 30:     PORTBConfig();
  7169                           	call	_PORTBConfig	;wreg free
  7170  00653C  EC2A  F032         	line	31
  7171                           	
  7172                           l2677:
  7173  006540                     ;main.c: 31:     PORTCConfig();
  7174                           	call	_PORTCConfig	;wreg free
  7175  006540  EC31  F032         	line	32
  7176                           	
  7177                           l2679:
  7178  006544                     ;main.c: 32:     PORTDConfig();
  7179                           	call	_PORTDConfig	;wreg free
  7180  006544  EC2C  F032         	line	33
  7181                           	
  7182                           l2681:
  7183  006548                     ;main.c: 33:     PORTEConfig();
  7184                           	call	_PORTEConfig	;wreg free
  7185  006548  EC37  F032         	line	34
  7186                           	
  7187                           l2683:
  7188  00654C                     ;main.c: 34:     TMR0Config();
  7189                           	call	_TMR0Config	;wreg free
  7190  00654C  EC28  F032         	line	35
  7191                           	
  7192                           l2685:
  7193  006550                     ;main.c: 35:     TMR1Config();
  7194                           	call	_TMR1Config	;wreg free
  7195  006550  EC34  F032         	line	36
  7196                           	
  7197                           l169:
  7198  006554                     	return	;funcret
  7199  006554  0012               	opt stack 0
  7200                           GLOBAL	__end_of_configuracionInicial
  7201                           	__end_of_configuracionInicial:
  7202  006556                     	signat	_configuracionInicial,89
  7203                           	global	_TMR1Config
  7204                           
  7205 ;; *************** function _TMR1Config *****************
  7206 ;; Defined at:
  7207 ;;		line 405 in file "main.c"
  7208 ;; Parameters:    Size  Location     Type
  7209 ;;		None
  7210 ;; Auto vars:     Size  Location     Type
  7211 ;;		None
  7212 ;; Return value:  Size  Location     Type
  7213 ;;                  1    wreg      void 
  7214 ;; Registers used:
  7215 ;;		wreg, status,2
  7216 ;; Tracked objects:
  7217 ;;		On entry : 0/0
  7218 ;;		On exit  : 0/0
  7219 ;;		Unchanged: 0/0
  7220 ;; Data sizes:     COMRAM   BANK0   BANK1   BANK2   BANK3   BANK4   BANK5   BANK6   BANK7
  7221 ;;      Params:         0       0       0       0       0       0       0       0       0
  7222 ;;      Locals:         0       0       0       0       0       0       0       0       0
  7223 ;;      Temps:          0       0       0       0       0       0       0       0       0
  7224 ;;      Totals:         0       0       0       0       0       0       0       0       0
  7225 ;;Total ram usage:        0 bytes
  7226 ;; Hardware stack levels used:    1
  7227 ;; Hardware stack levels required when called:    1
  7228 ;; This function calls:
  7229 ;;		Nothing
  7230 ;; This function is called by:
  7231 ;;		_configuracionInicial
  7232 ;; This function uses a non-reentrant model
  7233 ;;
  7234                           psect	text19,class=CODE,space=0,reloc=2,group=0
  7235                           	line	405
  7236                           global __ptext19
  7237                           __ptext19:
  7238  006468                     psect	text19
  7239                           	file	"main.c"
  7240                           	line	405
  7241                           	global	__size_of_TMR1Config
  7242                           	__size_of_TMR1Config	equ	__end_of_TMR1Config-_TMR1Config
  7243  0000                     	
  7244                           _TMR1Config:
  7245  006468                     ;incstack = 0
  7246                           	opt	stack 28
  7247                           	line	407
  7248                           	
  7249                           l2517:
  7250  006468                     ;main.c: 407:     T1CON = 0xB6;
  7251                           	movlw	low(0B6h)
  7252  006468  0EB6               	movwf	((c:4045)),c	;volatile
  7253  00646A  6ECD               	line	408
  7254                           	
  7255                           l324:
  7256  00646C                     	return	;funcret
  7257  00646C  0012               	opt stack 0
  7258                           GLOBAL	__end_of_TMR1Config
  7259                           	__end_of_TMR1Config:
  7260  00646E                     	signat	_TMR1Config,89
  7261                           	global	_TMR0Config
  7262                           
  7263 ;; *************** function _TMR0Config *****************
  7264 ;; Defined at:
  7265 ;;		line 374 in file "main.c"
  7266 ;; Parameters:    Size  Location     Type
  7267 ;;		None
  7268 ;; Auto vars:     Size  Location     Type
  7269 ;;		None
  7270 ;; Return value:  Size  Location     Type
  7271 ;;                  1    wreg      void 
  7272 ;; Registers used:
  7273 ;;		None
  7274 ;; Tracked objects:
  7275 ;;		On entry : 0/0
  7276 ;;		On exit  : 0/0
  7277 ;;		Unchanged: 0/0
  7278 ;; Data sizes:     COMRAM   BANK0   BANK1   BANK2   BANK3   BANK4   BANK5   BANK6   BANK7
  7279 ;;      Params:         0       0       0       0       0       0       0       0       0
  7280 ;;      Locals:         0       0       0       0       0       0       0       0       0
  7281 ;;      Temps:          0       0       0       0       0       0       0       0       0
  7282 ;;      Totals:         0       0       0       0       0       0       0       0       0
  7283 ;;Total ram usage:        0 bytes
  7284 ;; Hardware stack levels used:    1
  7285 ;; Hardware stack levels required when called:    1
  7286 ;; This function calls:
  7287 ;;		Nothing
  7288 ;; This function is called by:
  7289 ;;		_configuracionInicial
  7290 ;; This function uses a non-reentrant model
  7291 ;;
  7292                           psect	text20,class=CODE,space=0,reloc=2,group=0
  7293                           	line	374
  7294                           global __ptext20
  7295                           __ptext20:
  7296  006450                     psect	text20
  7297                           	file	"main.c"
  7298                           	line	374
  7299                           	global	__size_of_TMR0Config
  7300                           	__size_of_TMR0Config	equ	__end_of_TMR0Config-_TMR0Config
  7301  0000                     	
  7302                           _TMR0Config:
  7303  006450                     ;incstack = 0
  7304                           	opt	stack 28
  7305                           	line	387
  7306                           	
  7307                           l312:
  7308  006450                     	return	;funcret
  7309  006450  0012               	opt stack 0
  7310                           GLOBAL	__end_of_TMR0Config
  7311                           	__end_of_TMR0Config:
  7312  006452                     	signat	_TMR0Config,89
  7313                           	global	_PORTEConfig
  7314                           
  7315 ;; *************** function _PORTEConfig *****************
  7316 ;; Defined at:
  7317 ;;		line 470 in file "main.c"
  7318 ;; Parameters:    Size  Location     Type
  7319 ;;		None
  7320 ;; Auto vars:     Size  Location     Type
  7321 ;;		None
  7322 ;; Return value:  Size  Location     Type
  7323 ;;                  1    wreg      void 
  7324 ;; Registers used:
  7325 ;;		None
  7326 ;; Tracked objects:
  7327 ;;		On entry : 0/0
  7328 ;;		On exit  : 0/0
  7329 ;;		Unchanged: 0/0
  7330 ;; Data sizes:     COMRAM   BANK0   BANK1   BANK2   BANK3   BANK4   BANK5   BANK6   BANK7
  7331 ;;      Params:         0       0       0       0       0       0       0       0       0
  7332 ;;      Locals:         0       0       0       0       0       0       0       0       0
  7333 ;;      Temps:          0       0       0       0       0       0       0       0       0
  7334 ;;      Totals:         0       0       0       0       0       0       0       0       0
  7335 ;;Total ram usage:        0 bytes
  7336 ;; Hardware stack levels used:    1
  7337 ;; Hardware stack levels required when called:    1
  7338 ;; This function calls:
  7339 ;;		Nothing
  7340 ;; This function is called by:
  7341 ;;		_configuracionInicial
  7342 ;; This function uses a non-reentrant model
  7343 ;;
  7344                           psect	text21,class=CODE,space=0,reloc=2,group=0
  7345                           	line	470
  7346                           global __ptext21
  7347                           __ptext21:
  7348  00646E                     psect	text21
  7349                           	file	"main.c"
  7350                           	line	470
  7351                           	global	__size_of_PORTEConfig
  7352                           	__size_of_PORTEConfig	equ	__end_of_PORTEConfig-_PORTEConfig
  7353  0000                     	
  7354                           _PORTEConfig:
  7355  00646E                     ;incstack = 0
  7356                           	opt	stack 28
  7357                           	line	472
  7358                           	
  7359                           l2515:
  7360  00646E                     ;main.c: 472:     TRISEbits.RE0 = 1;
  7361                           	bsf	((c:3990)),c,0	;volatile
  7362  00646E  8096               	line	473
  7363                           ;main.c: 473:     TRISEbits.RE1 = 1;
  7364                           	bsf	((c:3990)),c,1	;volatile
  7365  006470  8296               	line	474
  7366                           ;main.c: 474:     TRISEbits.RE2 = 1;
  7367                           	bsf	((c:3990)),c,2	;volatile
  7368  006472  8496               	line	475
  7369                           	
  7370                           l356:
  7371  006474                     	return	;funcret
  7372  006474  0012               	opt stack 0
  7373                           GLOBAL	__end_of_PORTEConfig
  7374                           	__end_of_PORTEConfig:
  7375  006476                     	signat	_PORTEConfig,89
  7376                           	global	_PORTDConfig
  7377                           
  7378 ;; *************** function _PORTDConfig *****************
  7379 ;; Defined at:
  7380 ;;		line 466 in file "main.c"
  7381 ;; Parameters:    Size  Location     Type
  7382 ;;		None
  7383 ;; Auto vars:     Size  Location     Type
  7384 ;;		None
  7385 ;; Return value:  Size  Location     Type
  7386 ;;                  1    wreg      void 
  7387 ;; Registers used:
  7388 ;;		None
  7389 ;; Tracked objects:
  7390 ;;		On entry : 0/0
  7391 ;;		On exit  : 0/0
  7392 ;;		Unchanged: 0/0
  7393 ;; Data sizes:     COMRAM   BANK0   BANK1   BANK2   BANK3   BANK4   BANK5   BANK6   BANK7
  7394 ;;      Params:         0       0       0       0       0       0       0       0       0
  7395 ;;      Locals:         0       0       0       0       0       0       0       0       0
  7396 ;;      Temps:          0       0       0       0       0       0       0       0       0
  7397 ;;      Totals:         0       0       0       0       0       0       0       0       0
  7398 ;;Total ram usage:        0 bytes
  7399 ;; Hardware stack levels used:    1
  7400 ;; Hardware stack levels required when called:    1
  7401 ;; This function calls:
  7402 ;;		Nothing
  7403 ;; This function is called by:
  7404 ;;		_configuracionInicial
  7405 ;; This function uses a non-reentrant model
  7406 ;;
  7407                           psect	text22,class=CODE,space=0,reloc=2,group=0
  7408                           	line	466
  7409                           global __ptext22
  7410                           __ptext22:
  7411  006458                     psect	text22
  7412                           	file	"main.c"
  7413                           	line	466
  7414                           	global	__size_of_PORTDConfig
  7415                           	__size_of_PORTDConfig	equ	__end_of_PORTDConfig-_PORTDConfig
  7416  0000                     	
  7417                           _PORTDConfig:
  7418  006458                     ;incstack = 0
  7419                           	opt	stack 28
  7420                           	line	468
  7421                           	
  7422                           l2513:
  7423  006458                     ;main.c: 468:     TRISD = 0xFF;
  7424                           	setf	((c:3989)),c	;volatile
  7425  006458  6895               	line	469
  7426                           	
  7427                           l353:
  7428  00645A                     	return	;funcret
  7429  00645A  0012               	opt stack 0
  7430                           GLOBAL	__end_of_PORTDConfig
  7431                           	__end_of_PORTDConfig:
  7432  00645C                     	signat	_PORTDConfig,89
  7433                           	global	_PORTCConfig
  7434                           
  7435 ;; *************** function _PORTCConfig *****************
  7436 ;; Defined at:
  7437 ;;		line 462 in file "main.c"
  7438 ;; Parameters:    Size  Location     Type
  7439 ;;		None
  7440 ;; Auto vars:     Size  Location     Type
  7441 ;;		None
  7442 ;; Return value:  Size  Location     Type
  7443 ;;                  1    wreg      void 
  7444 ;; Registers used:
  7445 ;;		wreg, status,2
  7446 ;; Tracked objects:
  7447 ;;		On entry : 0/0
  7448 ;;		On exit  : 0/0
  7449 ;;		Unchanged: 0/0
  7450 ;; Data sizes:     COMRAM   BANK0   BANK1   BANK2   BANK3   BANK4   BANK5   BANK6   BANK7
  7451 ;;      Params:         0       0       0       0       0       0       0       0       0
  7452 ;;      Locals:         0       0       0       0       0       0       0       0       0
  7453 ;;      Temps:          0       0       0       0       0       0       0       0       0
  7454 ;;      Totals:         0       0       0       0       0       0       0       0       0
  7455 ;;Total ram usage:        0 bytes
  7456 ;; Hardware stack levels used:    1
  7457 ;; Hardware stack levels required when called:    1
  7458 ;; This function calls:
  7459 ;;		Nothing
  7460 ;; This function is called by:
  7461 ;;		_configuracionInicial
  7462 ;; This function uses a non-reentrant model
  7463 ;;
  7464                           psect	text23,class=CODE,space=0,reloc=2,group=0
  7465                           	line	462
  7466                           global __ptext23
  7467                           __ptext23:
  7468  006462                     psect	text23
  7469                           	file	"main.c"
  7470                           	line	462
  7471                           	global	__size_of_PORTCConfig
  7472                           	__size_of_PORTCConfig	equ	__end_of_PORTCConfig-_PORTCConfig
  7473  0000                     	
  7474                           _PORTCConfig:
  7475  006462                     ;incstack = 0
  7476                           	opt	stack 28
  7477                           	line	464
  7478                           	
  7479                           l2511:
  7480  006462                     ;main.c: 464:     TRISC = 0xCF;
  7481                           	movlw	low(0CFh)
  7482  006462  0ECF               	movwf	((c:3988)),c	;volatile
  7483  006464  6E94               	line	465
  7484                           	
  7485                           l350:
  7486  006466                     	return	;funcret
  7487  006466  0012               	opt stack 0
  7488                           GLOBAL	__end_of_PORTCConfig
  7489                           	__end_of_PORTCConfig:
  7490  006468                     	signat	_PORTCConfig,89
  7491                           	global	_PORTBConfig
  7492                           
  7493 ;; *************** function _PORTBConfig *****************
  7494 ;; Defined at:
  7495 ;;		line 458 in file "main.c"
  7496 ;; Parameters:    Size  Location     Type
  7497 ;;		None
  7498 ;; Auto vars:     Size  Location     Type
  7499 ;;		None
  7500 ;; Return value:  Size  Location     Type
  7501 ;;                  1    wreg      void 
  7502 ;; Registers used:
  7503 ;;		None
  7504 ;; Tracked objects:
  7505 ;;		On entry : 0/0
  7506 ;;		On exit  : 0/0
  7507 ;;		Unchanged: 0/0
  7508 ;; Data sizes:     COMRAM   BANK0   BANK1   BANK2   BANK3   BANK4   BANK5   BANK6   BANK7
  7509 ;;      Params:         0       0       0       0       0       0       0       0       0
  7510 ;;      Locals:         0       0       0       0       0       0       0       0       0
  7511 ;;      Temps:          0       0       0       0       0       0       0       0       0
  7512 ;;      Totals:         0       0       0       0       0       0       0       0       0
  7513 ;;Total ram usage:        0 bytes
  7514 ;; Hardware stack levels used:    1
  7515 ;; Hardware stack levels required when called:    1
  7516 ;; This function calls:
  7517 ;;		Nothing
  7518 ;; This function is called by:
  7519 ;;		_configuracionInicial
  7520 ;; This function uses a non-reentrant model
  7521 ;;
  7522                           psect	text24,class=CODE,space=0,reloc=2,group=0
  7523                           	line	458
  7524                           global __ptext24
  7525                           __ptext24:
  7526  006454                     psect	text24
  7527                           	file	"main.c"
  7528                           	line	458
  7529                           	global	__size_of_PORTBConfig
  7530                           	__size_of_PORTBConfig	equ	__end_of_PORTBConfig-_PORTBConfig
  7531  0000                     	
  7532                           _PORTBConfig:
  7533  006454                     ;incstack = 0
  7534                           	opt	stack 28
  7535                           	line	460
  7536                           	
  7537                           l2509:
  7538  006454                     ;main.c: 460:     TRISB = 0xFF;
  7539                           	setf	((c:3987)),c	;volatile
  7540  006454  6893               	line	461
  7541                           	
  7542                           l347:
  7543  006456                     	return	;funcret
  7544  006456  0012               	opt stack 0
  7545                           GLOBAL	__end_of_PORTBConfig
  7546                           	__end_of_PORTBConfig:
  7547  006458                     	signat	_PORTBConfig,89
  7548                           	global	_PORTAConfig
  7549                           
  7550 ;; *************** function _PORTAConfig *****************
  7551 ;; Defined at:
  7552 ;;		line 454 in file "main.c"
  7553 ;; Parameters:    Size  Location     Type
  7554 ;;		None
  7555 ;; Auto vars:     Size  Location     Type
  7556 ;;		None
  7557 ;; Return value:  Size  Location     Type
  7558 ;;                  1    wreg      void 
  7559 ;; Registers used:
  7560 ;;		wreg, status,2
  7561 ;; Tracked objects:
  7562 ;;		On entry : 0/0
  7563 ;;		On exit  : 0/0
  7564 ;;		Unchanged: 0/0
  7565 ;; Data sizes:     COMRAM   BANK0   BANK1   BANK2   BANK3   BANK4   BANK5   BANK6   BANK7
  7566 ;;      Params:         0       0       0       0       0       0       0       0       0
  7567 ;;      Locals:         0       0       0       0       0       0       0       0       0
  7568 ;;      Temps:          0       0       0       0       0       0       0       0       0
  7569 ;;      Totals:         0       0       0       0       0       0       0       0       0
  7570 ;;Total ram usage:        0 bytes
  7571 ;; Hardware stack levels used:    1
  7572 ;; Hardware stack levels required when called:    1
  7573 ;; This function calls:
  7574 ;;		Nothing
  7575 ;; This function is called by:
  7576 ;;		_configuracionInicial
  7577 ;; This function uses a non-reentrant model
  7578 ;;
  7579                           psect	text25,class=CODE,space=0,reloc=2,group=0
  7580                           	line	454
  7581                           global __ptext25
  7582                           __ptext25:
  7583  00645C                     psect	text25
  7584                           	file	"main.c"
  7585                           	line	454
  7586                           	global	__size_of_PORTAConfig
  7587                           	__size_of_PORTAConfig	equ	__end_of_PORTAConfig-_PORTAConfig
  7588  0000                     	
  7589                           _PORTAConfig:
  7590  00645C                     ;incstack = 0
  7591                           	opt	stack 28
  7592                           	line	456
  7593                           	
  7594                           l2507:
  7595  00645C                     ;main.c: 456:     TRISA = 0x3F;
  7596                           	movlw	low(03Fh)
  7597  00645C  0E3F               	movwf	((c:3986)),c	;volatile
  7598  00645E  6E92               	line	457
  7599                           	
  7600                           l344:
  7601  006460                     	return	;funcret
  7602  006460  0012               	opt stack 0
  7603                           GLOBAL	__end_of_PORTAConfig
  7604                           	__end_of_PORTAConfig:
  7605  006462                     	signat	_PORTAConfig,89
  7606                           	global	_CCPConfig
  7607                           
  7608 ;; *************** function _CCPConfig *****************
  7609 ;; Defined at:
  7610 ;;		line 367 in file "main.c"
  7611 ;; Parameters:    Size  Location     Type
  7612 ;;		None
  7613 ;; Auto vars:     Size  Location     Type
  7614 ;;		None
  7615 ;; Return value:  Size  Location     Type
  7616 ;;                  1    wreg      void 
  7617 ;; Registers used:
  7618 ;;		wreg, status,2, status,0, cstack
  7619 ;; Tracked objects:
  7620 ;;		On entry : 0/0
  7621 ;;		On exit  : 0/0
  7622 ;;		Unchanged: 0/0
  7623 ;; Data sizes:     COMRAM   BANK0   BANK1   BANK2   BANK3   BANK4   BANK5   BANK6   BANK7
  7624 ;;      Params:         0       0       0       0       0       0       0       0       0
  7625 ;;      Locals:         0       0       0       0       0       0       0       0       0
  7626 ;;      Temps:          0       0       0       0       0       0       0       0       0
  7627 ;;      Totals:         0       0       0       0       0       0       0       0       0
  7628 ;;Total ram usage:        0 bytes
  7629 ;; Hardware stack levels used:    1
  7630 ;; Hardware stack levels required when called:    3
  7631 ;; This function calls:
  7632 ;;		_PWM1_Init
  7633 ;;		_PWM1_Start
  7634 ;;		_PWM2_Init
  7635 ;;		_PWM2_Start
  7636 ;; This function is called by:
  7637 ;;		_configuracionInicial
  7638 ;; This function uses a non-reentrant model
  7639 ;;
  7640                           psect	text26,class=CODE,space=0,reloc=2,group=0
  7641                           	line	367
  7642                           global __ptext26
  7643                           __ptext26:
  7644  006586                     psect	text26
  7645                           	file	"main.c"
  7646                           	line	367
  7647                           	global	__size_of_CCPConfig
  7648                           	__size_of_CCPConfig	equ	__end_of_CCPConfig-_CCPConfig
  7649  0000                     	
  7650                           _CCPConfig:
  7651  006586                     ;incstack = 0
  7652                           	opt	stack 26
  7653                           	line	369
  7654                           	
  7655                           l2501:
  7656  006586                     ;main.c: 369:     PWM1_Init(1500);
  7657                           	movlw	low(05DCh)
  7658  006586  0EDC               	movwf	((c:PWM1_Init@fre)),c
  7659  006588  6E0F               	movlw	high(05DCh)
  7660  00658A  0E05               	movwf	((c:PWM1_Init@fre+1)),c
  7661  00658C  6E10               	movlw	low highword(05DCh)
  7662  00658E  0E00               	movwf	((c:PWM1_Init@fre+2)),c
  7663  006590  6E11               	movlw	high highword(05DCh)
  7664  006592  0E00               	movwf	((c:PWM1_Init@fre+3)),c
  7665  006594  6E12               	call	_PWM1_Init	;wreg free
  7666  006596  EC5D  F033         	line	370
  7667                           ;main.c: 370:     PWM2_Init(1500);
  7668                           	movlw	low(05DCh)
  7669  00659A  0EDC               	movwf	((c:PWM2_Init@fre)),c
  7670  00659C  6E0F               	movlw	high(05DCh)
  7671  00659E  0E05               	movwf	((c:PWM2_Init@fre+1)),c
  7672  0065A0  6E10               	movlw	low highword(05DCh)
  7673  0065A2  0E00               	movwf	((c:PWM2_Init@fre+2)),c
  7674  0065A4  6E11               	movlw	high highword(05DCh)
  7675  0065A6  0E00               	movwf	((c:PWM2_Init@fre+3)),c
  7676  0065A8  6E12               	call	_PWM2_Init	;wreg free
  7677  0065AA  EC94  F033         	line	371
  7678                           	
  7679                           l2503:
  7680  0065AE                     ;main.c: 371:     PWM1_Start();
  7681                           	call	_PWM1_Start	;wreg free
  7682  0065AE  EC3B  F032         	line	372
  7683                           	
  7684                           l2505:
  7685  0065B2                     ;main.c: 372:     PWM2_Start();
  7686                           	call	_PWM2_Start	;wreg free
  7687  0065B2  EC41  F032         	line	373
  7688                           	
  7689                           l309:
  7690  0065B6                     	return	;funcret
  7691  0065B6  0012               	opt stack 0
  7692                           GLOBAL	__end_of_CCPConfig
  7693                           	__end_of_CCPConfig:
  7694  0065B8                     	signat	_CCPConfig,89
  7695                           	global	_PWM2_Start
  7696                           
  7697 ;; *************** function _PWM2_Start *****************
  7698 ;; Defined at:
  7699 ;;		line 527 in file "main.c"
  7700 ;; Parameters:    Size  Location     Type
  7701 ;;		None
  7702 ;; Auto vars:     Size  Location     Type
  7703 ;;		None
  7704 ;; Return value:  Size  Location     Type
  7705 ;;                  1    wreg      void 
  7706 ;; Registers used:
  7707 ;;		None
  7708 ;; Tracked objects:
  7709 ;;		On entry : 0/0
  7710 ;;		On exit  : 0/0
  7711 ;;		Unchanged: 0/0
  7712 ;; Data sizes:     COMRAM   BANK0   BANK1   BANK2   BANK3   BANK4   BANK5   BANK6   BANK7
  7713 ;;      Params:         0       0       0       0       0       0       0       0       0
  7714 ;;      Locals:         0       0       0       0       0       0       0       0       0
  7715 ;;      Temps:          0       0       0       0       0       0       0       0       0
  7716 ;;      Totals:         0       0       0       0       0       0       0       0       0
  7717 ;;Total ram usage:        0 bytes
  7718 ;; Hardware stack levels used:    1
  7719 ;; Hardware stack levels required when called:    1
  7720 ;; This function calls:
  7721 ;;		Nothing
  7722 ;; This function is called by:
  7723 ;;		_CCPConfig
  7724 ;; This function uses a non-reentrant model
  7725 ;;
  7726                           psect	text27,class=CODE,space=0,reloc=2,group=0
  7727                           	line	527
  7728                           global __ptext27
  7729                           __ptext27:
  7730  006482                     psect	text27
  7731                           	file	"main.c"
  7732                           	line	527
  7733                           	global	__size_of_PWM2_Start
  7734                           	__size_of_PWM2_Start	equ	__end_of_PWM2_Start-_PWM2_Start
  7735  0000                     	
  7736                           _PWM2_Start:
  7737  006482                     ;incstack = 0
  7738                           	opt	stack 27
  7739                           	line	529
  7740                           	
  7741                           l2137:
  7742  006482                     ;main.c: 529:     CCP2M3 = 1;
  7743                           	bsf	c:(32211/8),(32211)&7	;volatile
  7744  006482  86BA               	line	530
  7745                           ;main.c: 530:     CCP2M2 = 1;
  7746                           	bsf	c:(32210/8),(32210)&7	;volatile
  7747  006484  84BA               	line	538
  7748                           ;main.c: 538:     T2CKPS0 = 1;
  7749                           	bsf	c:(32336/8),(32336)&7	;volatile
  7750  006486  80CA               	line	539
  7751                           ;main.c: 539:     T2CKPS1 = 1;
  7752                           	bsf	c:(32337/8),(32337)&7	;volatile
  7753  006488  82CA               	line	541
  7754                           ;main.c: 541:     TMR2ON = 1;
  7755                           	bsf	c:(32338/8),(32338)&7	;volatile
  7756  00648A  84CA               	line	543
  7757                           	
  7758                           l382:
  7759  00648C                     	return	;funcret
  7760  00648C  0012               	opt stack 0
  7761                           GLOBAL	__end_of_PWM2_Start
  7762                           	__end_of_PWM2_Start:
  7763  00648E                     	signat	_PWM2_Start,89
  7764                           	global	_PWM2_Init
  7765                           
  7766 ;; *************** function _PWM2_Init *****************
  7767 ;; Defined at:
  7768 ;;		line 500 in file "main.c"
  7769 ;; Parameters:    Size  Location     Type
  7770 ;;  fre             4   14[COMRAM] long 
  7771 ;; Auto vars:     Size  Location     Type
  7772 ;;		None
  7773 ;; Return value:  Size  Location     Type
  7774 ;;                  1    wreg      void 
  7775 ;; Registers used:
  7776 ;;		wreg, status,2, status,0, cstack
  7777 ;; Tracked objects:
  7778 ;;		On entry : 0/0
  7779 ;;		On exit  : 0/0
  7780 ;;		Unchanged: 0/0
  7781 ;; Data sizes:     COMRAM   BANK0   BANK1   BANK2   BANK3   BANK4   BANK5   BANK6   BANK7
  7782 ;;      Params:         4       0       0       0       0       0       0       0       0
  7783 ;;      Locals:         0       0       0       0       0       0       0       0       0
  7784 ;;      Temps:          4       0       0       0       0       0       0       0       0
  7785 ;;      Totals:         8       0       0       0       0       0       0       0       0
  7786 ;;Total ram usage:        8 bytes
  7787 ;; Hardware stack levels used:    1
  7788 ;; Hardware stack levels required when called:    2
  7789 ;; This function calls:
  7790 ;;		___aldiv
  7791 ;; This function is called by:
  7792 ;;		_CCPConfig
  7793 ;; This function uses a non-reentrant model
  7794 ;;
  7795                           psect	text28,class=CODE,space=0,reloc=2,group=0
  7796                           	line	500
  7797                           global __ptext28
  7798                           __ptext28:
  7799  006728                     psect	text28
  7800                           	file	"main.c"
  7801                           	line	500
  7802                           	global	__size_of_PWM2_Init
  7803                           	__size_of_PWM2_Init	equ	__end_of_PWM2_Init-_PWM2_Init
  7804  0000                     	
  7805                           _PWM2_Init:
  7806  006728                     ;incstack = 0
  7807                           	opt	stack 26
  7808                           	line	502
  7809                           	
  7810                           l2131:
  7811  006728                     ;main.c: 500: void PWM2_Init(long fre);main.c: 501: {;main.c: 502:     PR2 = (24000000 /
                                  (fre * 4 * 16)) - 1;
  7812                           	movlw	low(016E3600h)
  7813  006728  0E00               	movwf	((c:___aldiv@dividend)),c
  7814  00672A  6E01               	movlw	high(016E3600h)
  7815  00672C  0E36               	movwf	((c:___aldiv@dividend+1)),c
  7816  00672E  6E02               	movlw	low highword(016E3600h)
  7817  006730  0E6E               	movwf	((c:___aldiv@dividend+2)),c
  7818  006732  6E03               	movlw	high highword(016E3600h)
  7819  006734  0E01               	movwf	((c:___aldiv@dividend+3)),c
  7820  006736  6E04               	movff	(c:PWM2_Init@fre),??_PWM2_Init+0+0
  7821  006738  C00F  F013         	movff	(c:PWM2_Init@fre+1),??_PWM2_Init+0+0+1
  7822  00673C  C010  F014         	movff	(c:PWM2_Init@fre+2),??_PWM2_Init+0+0+2
  7823  006740  C011  F015         	movff	(c:PWM2_Init@fre+3),??_PWM2_Init+0+0+3
  7824  006744  C012  F016         	movlw	02h
  7825  006748  0E02               u1825:
  7826  00674A                     	bcf	status,0
  7827  00674A  90D8               	rlcf	(??_PWM2_Init+0+0),c
  7828  00674C  3613               	rlcf	(??_PWM2_Init+0+1),c
  7829  00674E  3614               	rlcf	(??_PWM2_Init+0+2),c
  7830  006750  3615               	rlcf	(??_PWM2_Init+0+3),c
  7831  006752  3616               	decfsz	wreg
  7832  006754  2EE8               	goto	u1825
  7833  006756  EFA5  F033         	movlw	04h
  7834  00675A  0E04               u1835:
  7835  00675C                     	bcf	status,0
  7836  00675C  90D8               	rlcf	(??_PWM2_Init+0+0),c
  7837  00675E  3613               	rlcf	(??_PWM2_Init+0+1),c
  7838  006760  3614               	rlcf	(??_PWM2_Init+0+2),c
  7839  006762  3615               	rlcf	(??_PWM2_Init+0+3),c
  7840  006764  3616               	decfsz	wreg
  7841  006766  2EE8               	goto	u1835
  7842  006768  EFAE  F033         	movff	??_PWM2_Init+0+0,(c:___aldiv@divisor)
  7843  00676C  C013  F005         	movff	??_PWM2_Init+0+1,(c:___aldiv@divisor+1)
  7844  006770  C014  F006         	movff	??_PWM2_Init+0+2,(c:___aldiv@divisor+2)
  7845  006774  C015  F007         	movff	??_PWM2_Init+0+3,(c:___aldiv@divisor+3)
  7846  006778  C016  F008         	call	___aldiv	;wreg free
  7847  00677C  EC46  F035         	decf	(0+?___aldiv),c,w
  7848  006780  0401               	movwf	((c:4043)),c	;volatile
  7849  006782  6ECB               	line	503
  7850                           	
  7851                           l2133:
  7852  006784                     ;main.c: 503:     freq = fre;
  7853                           	movff	(c:PWM2_Init@fre),(_freq)
  7854  006784  C00F  F082         	movff	(c:PWM2_Init@fre+1),(_freq+1)
  7855  006788  C010  F083         	movff	(c:PWM2_Init@fre+2),(_freq+2)
  7856  00678C  C011  F084         	movff	(c:PWM2_Init@fre+3),(_freq+3)
  7857  006790  C012  F085         	line	504
  7858                           	
  7859                           l373:
  7860  006794                     	return	;funcret
  7861  006794  0012               	opt stack 0
  7862                           GLOBAL	__end_of_PWM2_Init
  7863                           	__end_of_PWM2_Init:
  7864  006796                     	signat	_PWM2_Init,4217
  7865                           	global	_PWM1_Start
  7866                           
  7867 ;; *************** function _PWM1_Start *****************
  7868 ;; Defined at:
  7869 ;;		line 505 in file "main.c"
  7870 ;; Parameters:    Size  Location     Type
  7871 ;;		None
  7872 ;; Auto vars:     Size  Location     Type
  7873 ;;		None
  7874 ;; Return value:  Size  Location     Type
  7875 ;;                  1    wreg      void 
  7876 ;; Registers used:
  7877 ;;		None
  7878 ;; Tracked objects:
  7879 ;;		On entry : 0/0
  7880 ;;		On exit  : 0/0
  7881 ;;		Unchanged: 0/0
  7882 ;; Data sizes:     COMRAM   BANK0   BANK1   BANK2   BANK3   BANK4   BANK5   BANK6   BANK7
  7883 ;;      Params:         0       0       0       0       0       0       0       0       0
  7884 ;;      Locals:         0       0       0       0       0       0       0       0       0
  7885 ;;      Temps:          0       0       0       0       0       0       0       0       0
  7886 ;;      Totals:         0       0       0       0       0       0       0       0       0
  7887 ;;Total ram usage:        0 bytes
  7888 ;; Hardware stack levels used:    1
  7889 ;; Hardware stack levels required when called:    1
  7890 ;; This function calls:
  7891 ;;		Nothing
  7892 ;; This function is called by:
  7893 ;;		_CCPConfig
  7894 ;; This function uses a non-reentrant model
  7895 ;;
  7896                           psect	text29,class=CODE,space=0,reloc=2,group=0
  7897                           	line	505
  7898                           global __ptext29
  7899                           __ptext29:
  7900  006476                     psect	text29
  7901                           	file	"main.c"
  7902                           	line	505
  7903                           	global	__size_of_PWM1_Start
  7904                           	__size_of_PWM1_Start	equ	__end_of_PWM1_Start-_PWM1_Start
  7905  0000                     	
  7906                           _PWM1_Start:
  7907  006476                     ;incstack = 0
  7908                           	opt	stack 27
  7909                           	line	507
  7910                           	
  7911                           l2135:
  7912  006476                     ;main.c: 507:     CCP1M3 = 1;
  7913                           	bsf	c:(32235/8),(32235)&7	;volatile
  7914  006476  86BD               	line	508
  7915                           ;main.c: 508:     CCP1M2 = 1;
  7916                           	bsf	c:(32234/8),(32234)&7	;volatile
  7917  006478  84BD               	line	516
  7918                           ;main.c: 516:     T2CKPS0 = 1;
  7919                           	bsf	c:(32336/8),(32336)&7	;volatile
  7920  00647A  80CA               	line	517
  7921                           ;main.c: 517:     T2CKPS1 = 1;
  7922                           	bsf	c:(32337/8),(32337)&7	;volatile
  7923  00647C  82CA               	line	519
  7924                           ;main.c: 519:     TMR2ON = 1;
  7925                           	bsf	c:(32338/8),(32338)&7	;volatile
  7926  00647E  84CA               	line	521
  7927                           	
  7928                           l376:
  7929  006480                     	return	;funcret
  7930  006480  0012               	opt stack 0
  7931                           GLOBAL	__end_of_PWM1_Start
  7932                           	__end_of_PWM1_Start:
  7933  006482                     	signat	_PWM1_Start,89
  7934                           	global	_PWM1_Init
  7935                           
  7936 ;; *************** function _PWM1_Init *****************
  7937 ;; Defined at:
  7938 ;;		line 495 in file "main.c"
  7939 ;; Parameters:    Size  Location     Type
  7940 ;;  fre             4   14[COMRAM] long 
  7941 ;; Auto vars:     Size  Location     Type
  7942 ;;		None
  7943 ;; Return value:  Size  Location     Type
  7944 ;;                  1    wreg      void 
  7945 ;; Registers used:
  7946 ;;		wreg, status,2, status,0, cstack
  7947 ;; Tracked objects:
  7948 ;;		On entry : 0/0
  7949 ;;		On exit  : 0/0
  7950 ;;		Unchanged: 0/0
  7951 ;; Data sizes:     COMRAM   BANK0   BANK1   BANK2   BANK3   BANK4   BANK5   BANK6   BANK7
  7952 ;;      Params:         4       0       0       0       0       0       0       0       0
  7953 ;;      Locals:         0       0       0       0       0       0       0       0       0
  7954 ;;      Temps:          4       0       0       0       0       0       0       0       0
  7955 ;;      Totals:         8       0       0       0       0       0       0       0       0
  7956 ;;Total ram usage:        8 bytes
  7957 ;; Hardware stack levels used:    1
  7958 ;; Hardware stack levels required when called:    2
  7959 ;; This function calls:
  7960 ;;		___aldiv
  7961 ;; This function is called by:
  7962 ;;		_CCPConfig
  7963 ;; This function uses a non-reentrant model
  7964 ;;
  7965                           psect	text30,class=CODE,space=0,reloc=2,group=0
  7966                           	line	495
  7967                           global __ptext30
  7968                           __ptext30:
  7969  0066BA                     psect	text30
  7970                           	file	"main.c"
  7971                           	line	495
  7972                           	global	__size_of_PWM1_Init
  7973                           	__size_of_PWM1_Init	equ	__end_of_PWM1_Init-_PWM1_Init
  7974  0000                     	
  7975                           _PWM1_Init:
  7976  0066BA                     ;incstack = 0
  7977                           	opt	stack 26
  7978                           	line	497
  7979                           	
  7980                           l2127:
  7981  0066BA                     ;main.c: 495: void PWM1_Init(long fre);main.c: 496: {;main.c: 497:     PR2 = (24000000 /
                                  (fre * 4 * 16)) - 1;
  7982                           	movlw	low(016E3600h)
  7983  0066BA  0E00               	movwf	((c:___aldiv@dividend)),c
  7984  0066BC  6E01               	movlw	high(016E3600h)
  7985  0066BE  0E36               	movwf	((c:___aldiv@dividend+1)),c
  7986  0066C0  6E02               	movlw	low highword(016E3600h)
  7987  0066C2  0E6E               	movwf	((c:___aldiv@dividend+2)),c
  7988  0066C4  6E03               	movlw	high highword(016E3600h)
  7989  0066C6  0E01               	movwf	((c:___aldiv@dividend+3)),c
  7990  0066C8  6E04               	movff	(c:PWM1_Init@fre),??_PWM1_Init+0+0
  7991  0066CA  C00F  F013         	movff	(c:PWM1_Init@fre+1),??_PWM1_Init+0+0+1
  7992  0066CE  C010  F014         	movff	(c:PWM1_Init@fre+2),??_PWM1_Init+0+0+2
  7993  0066D2  C011  F015         	movff	(c:PWM1_Init@fre+3),??_PWM1_Init+0+0+3
  7994  0066D6  C012  F016         	movlw	02h
  7995  0066DA  0E02               u1805:
  7996  0066DC                     	bcf	status,0
  7997  0066DC  90D8               	rlcf	(??_PWM1_Init+0+0),c
  7998  0066DE  3613               	rlcf	(??_PWM1_Init+0+1),c
  7999  0066E0  3614               	rlcf	(??_PWM1_Init+0+2),c
  8000  0066E2  3615               	rlcf	(??_PWM1_Init+0+3),c
  8001  0066E4  3616               	decfsz	wreg
  8002  0066E6  2EE8               	goto	u1805
  8003  0066E8  EF6E  F033         	movlw	04h
  8004  0066EC  0E04               u1815:
  8005  0066EE                     	bcf	status,0
  8006  0066EE  90D8               	rlcf	(??_PWM1_Init+0+0),c
  8007  0066F0  3613               	rlcf	(??_PWM1_Init+0+1),c
  8008  0066F2  3614               	rlcf	(??_PWM1_Init+0+2),c
  8009  0066F4  3615               	rlcf	(??_PWM1_Init+0+3),c
  8010  0066F6  3616               	decfsz	wreg
  8011  0066F8  2EE8               	goto	u1815
  8012  0066FA  EF77  F033         	movff	??_PWM1_Init+0+0,(c:___aldiv@divisor)
  8013  0066FE  C013  F005         	movff	??_PWM1_Init+0+1,(c:___aldiv@divisor+1)
  8014  006702  C014  F006         	movff	??_PWM1_Init+0+2,(c:___aldiv@divisor+2)
  8015  006706  C015  F007         	movff	??_PWM1_Init+0+3,(c:___aldiv@divisor+3)
  8016  00670A  C016  F008         	call	___aldiv	;wreg free
  8017  00670E  EC46  F035         	decf	(0+?___aldiv),c,w
  8018  006712  0401               	movwf	((c:4043)),c	;volatile
  8019  006714  6ECB               	line	498
  8020                           	
  8021                           l2129:
  8022  006716                     ;main.c: 498:     freq = fre;
  8023                           	movff	(c:PWM1_Init@fre),(_freq)
  8024  006716  C00F  F082         	movff	(c:PWM1_Init@fre+1),(_freq+1)
  8025  00671A  C010  F083         	movff	(c:PWM1_Init@fre+2),(_freq+2)
  8026  00671E  C011  F084         	movff	(c:PWM1_Init@fre+3),(_freq+3)
  8027  006722  C012  F085         	line	499
  8028                           	
  8029                           l370:
  8030  006726                     	return	;funcret
  8031  006726  0012               	opt stack 0
  8032                           GLOBAL	__end_of_PWM1_Init
  8033                           	__end_of_PWM1_Init:
  8034  006728                     	signat	_PWM1_Init,4217
  8035                           	global	___aldiv
  8036                           
  8037 ;; *************** function ___aldiv *****************
  8038 ;; Defined at:
  8039 ;;		line 7 in file "C:\Program Files (x86)\Microchip\xc8\v2.00\pic\sources\c99\common\aldiv.c"
  8040 ;; Parameters:    Size  Location     Type
  8041 ;;  dividend        4    0[COMRAM] long 
  8042 ;;  divisor         4    4[COMRAM] long 
  8043 ;; Auto vars:     Size  Location     Type
  8044 ;;  quotient        4   10[COMRAM] long 
  8045 ;;  sign            1    9[COMRAM] unsigned char 
  8046 ;;  counter         1    8[COMRAM] unsigned char 
  8047 ;; Return value:  Size  Location     Type
  8048 ;;                  4    0[COMRAM] long 
  8049 ;; Registers used:
  8050 ;;		wreg, status,2, status,0
  8051 ;; Tracked objects:
  8052 ;;		On entry : 0/0
  8053 ;;		On exit  : 0/0
  8054 ;;		Unchanged: 0/0
  8055 ;; Data sizes:     COMRAM   BANK0   BANK1   BANK2   BANK3   BANK4   BANK5   BANK6   BANK7
  8056 ;;      Params:         8       0       0       0       0       0       0       0       0
  8057 ;;      Locals:         6       0       0       0       0       0       0       0       0
  8058 ;;      Temps:          0       0       0       0       0       0       0       0       0
  8059 ;;      Totals:        14       0       0       0       0       0       0       0       0
  8060 ;;Total ram usage:       14 bytes
  8061 ;; Hardware stack levels used:    1
  8062 ;; Hardware stack levels required when called:    1
  8063 ;; This function calls:
  8064 ;;		Nothing
  8065 ;; This function is called by:
  8066 ;;		_PWM_Max_Duty
  8067 ;;		_PWM1_Init
  8068 ;;		_PWM2_Init
  8069 ;;		_SerialBegin
  8070 ;; This function uses a non-reentrant model
  8071 ;;
  8072                           psect	text31,class=CODE,space=0,reloc=2,group=1
  8073                           	file	"C:\Program Files (x86)\Microchip\xc8\v2.00\pic\sources\c99\common\aldiv.c"
  8074                           	line	7
  8075                           global __ptext31
  8076                           __ptext31:
  8077  006A8C                     psect	text31
  8078                           	file	"C:\Program Files (x86)\Microchip\xc8\v2.00\pic\sources\c99\common\aldiv.c"
  8079                           	line	7
  8080                           	global	__size_of___aldiv
  8081                           	__size_of___aldiv	equ	__end_of___aldiv-___aldiv
  8082  0000                     	
  8083                           ___aldiv:
  8084  006A8C                     ;incstack = 0
  8085                           	opt	stack 27
  8086                           	line	13
  8087                           	
  8088                           l2079:
  8089  006A8C                     	movlw	low(0)
  8090  006A8C  0E00               	movwf	((c:___aldiv@sign)),c
  8091  006A8E  6E0A               	line	14
  8092                           	
  8093                           l2081:
  8094  006A90                     	btfsc	((c:___aldiv@divisor+3)),c,7
  8095  006A90  BE08               	goto	u1730
  8096  006A92  EF4F  F035         	goto	u1731
  8097  006A96  EF4D  F035         
  8098                           u1731:
  8099  006A9A                     	goto	l2087
  8100  006A9A  EF5B  F035         u1730:
  8101  006A9E                     	line	15
  8102                           	
  8103                           l2083:
  8104  006A9E                     	comf	((c:___aldiv@divisor+3)),c
  8105  006A9E  1E08               	comf	((c:___aldiv@divisor+2)),c
  8106  006AA0  1E07               	comf	((c:___aldiv@divisor+1)),c
  8107  006AA2  1E06               	negf	((c:___aldiv@divisor)),c
  8108  006AA4  6C05               	movlw	0
  8109  006AA6  0E00               	addwfc	((c:___aldiv@divisor+1)),c
  8110  006AA8  2206               	addwfc	((c:___aldiv@divisor+2)),c
  8111  006AAA  2207               	addwfc	((c:___aldiv@divisor+3)),c
  8112  006AAC  2208               	line	16
  8113                           	
  8114                           l2085:
  8115  006AAE                     	movlw	low(01h)
  8116  006AAE  0E01               	movwf	((c:___aldiv@sign)),c
  8117  006AB0  6E0A               	goto	l2087
  8118  006AB2  EF5B  F035         	line	17
  8119                           	
  8120                           l595:
  8121  006AB6                     	line	18
  8122                           	
  8123                           l2087:
  8124  006AB6                     	btfsc	((c:___aldiv@dividend+3)),c,7
  8125  006AB6  BE04               	goto	u1740
  8126  006AB8  EF62  F035         	goto	u1741
  8127  006ABC  EF60  F035         
  8128                           u1741:
  8129  006AC0                     	goto	l2093
  8130  006AC0  EF6E  F035         u1740:
  8131  006AC4                     	line	19
  8132                           	
  8133                           l2089:
  8134  006AC4                     	comf	((c:___aldiv@dividend+3)),c
  8135  006AC4  1E04               	comf	((c:___aldiv@dividend+2)),c
  8136  006AC6  1E03               	comf	((c:___aldiv@dividend+1)),c
  8137  006AC8  1E02               	negf	((c:___aldiv@dividend)),c
  8138  006ACA  6C01               	movlw	0
  8139  006ACC  0E00               	addwfc	((c:___aldiv@dividend+1)),c
  8140  006ACE  2202               	addwfc	((c:___aldiv@dividend+2)),c
  8141  006AD0  2203               	addwfc	((c:___aldiv@dividend+3)),c
  8142  006AD2  2204               	line	20
  8143                           	
  8144                           l2091:
  8145  006AD4                     	movlw	(01h)&0ffh
  8146  006AD4  0E01               	xorwf	((c:___aldiv@sign)),c
  8147  006AD6  1A0A               	goto	l2093
  8148  006AD8  EF6E  F035         	line	21
  8149                           	
  8150                           l596:
  8151  006ADC                     	line	22
  8152                           	
  8153                           l2093:
  8154  006ADC                     	movlw	low(0)
  8155  006ADC  0E00               	movwf	((c:___aldiv@quotient)),c
  8156  006ADE  6E0B               	movlw	high(0)
  8157  006AE0  0E00               	movwf	((c:___aldiv@quotient+1)),c
  8158  006AE2  6E0C               	movlw	low highword(0)
  8159  006AE4  0E00               	movwf	((c:___aldiv@quotient+2)),c
  8160  006AE6  6E0D               	movlw	high highword(0)
  8161  006AE8  0E00               	movwf	((c:___aldiv@quotient+3)),c
  8162  006AEA  6E0E               	line	23
  8163                           	
  8164                           l2095:
  8165  006AEC                     	movf	((c:___aldiv@divisor)),c,w
  8166  006AEC  5005               iorwf	((c:___aldiv@divisor+1)),c,w
  8167  006AEE  1006               iorwf	((c:___aldiv@divisor+2)),c,w
  8168  006AF0  1007               iorwf	((c:___aldiv@divisor+3)),c,w
  8169  006AF2  1008               	btfsc	status,2
  8170  006AF4  B4D8               	goto	u1751
  8171  006AF6  EF7F  F035         	goto	u1750
  8172  006AFA  EF81  F035         
  8173                           u1751:
  8174  006AFE                     	goto	l2115
  8175  006AFE  EFC3  F035         u1750:
  8176  006B02                     	line	24
  8177                           	
  8178                           l2097:
  8179  006B02                     	movlw	low(01h)
  8180  006B02  0E01               	movwf	((c:___aldiv@counter)),c
  8181  006B04  6E09               	line	25
  8182                           	goto	l2101
  8183  006B06  EF8D  F035         	
  8184                           l599:
  8185  006B0A                     	line	26
  8186                           	
  8187                           l2099:
  8188  006B0A                     	bcf	status,0
  8189  006B0A  90D8               	rlcf	((c:___aldiv@divisor)),c
  8190  006B0C  3605               	rlcf	((c:___aldiv@divisor+1)),c
  8191  006B0E  3606               	rlcf	((c:___aldiv@divisor+2)),c
  8192  006B10  3607               	rlcf	((c:___aldiv@divisor+3)),c
  8193  006B12  3608               	line	27
  8194                           	incf	((c:___aldiv@counter)),c
  8195  006B14  2A09               	goto	l2101
  8196  006B16  EF8D  F035         	line	28
  8197                           	
  8198                           l598:
  8199  006B1A                     	line	25
  8200                           	
  8201                           l2101:
  8202  006B1A                     	
  8203                           	btfss	((c:___aldiv@divisor+3)),c,(31)&7
  8204  006B1A  AE08               	goto	u1761
  8205  006B1C  EF92  F035         	goto	u1760
  8206  006B20  EF94  F035         u1761:
  8207  006B24                     	goto	l2099
  8208  006B24  EF85  F035         u1760:
  8209  006B28                     	goto	l2103
  8210  006B28  EF98  F035         	
  8211                           l600:
  8212  006B2C                     	goto	l2103
  8213  006B2C  EF98  F035         	line	29
  8214                           	
  8215                           l601:
  8216  006B30                     	line	30
  8217                           	
  8218                           l2103:
  8219  006B30                     	bcf	status,0
  8220  006B30  90D8               	rlcf	((c:___aldiv@quotient)),c
  8221  006B32  360B               	rlcf	((c:___aldiv@quotient+1)),c
  8222  006B34  360C               	rlcf	((c:___aldiv@quotient+2)),c
  8223  006B36  360D               	rlcf	((c:___aldiv@quotient+3)),c
  8224  006B38  360E               	line	31
  8225                           	
  8226                           l2105:
  8227  006B3A                     		movf	((c:___aldiv@divisor)),c,w
  8228  006B3A  5005               	subwf	((c:___aldiv@dividend)),c,w
  8229  006B3C  5C01               	movf	((c:___aldiv@divisor+1)),c,w
  8230  006B3E  5006               	subwfb	((c:___aldiv@dividend+1)),c,w
  8231  006B40  5802               	movf	((c:___aldiv@divisor+2)),c,w
  8232  006B42  5007               	subwfb	((c:___aldiv@dividend+2)),c,w
  8233  006B44  5803               	movf	((c:___aldiv@divisor+3)),c,w
  8234  006B46  5008               	subwfb	((c:___aldiv@dividend+3)),c,w
  8235  006B48  5804               	btfss	status,0
  8236  006B4A  A0D8               	goto	u1771
  8237  006B4C  EFAA  F035         	goto	u1770
  8238  006B50  EFAC  F035         
  8239                           u1771:
  8240  006B54                     	goto	l2111
  8241  006B54  EFB7  F035         u1770:
  8242  006B58                     	line	32
  8243                           	
  8244                           l2107:
  8245  006B58                     	movf	((c:___aldiv@divisor)),c,w
  8246  006B58  5005               	subwf	((c:___aldiv@dividend)),c
  8247  006B5A  5E01               	movf	((c:___aldiv@divisor+1)),c,w
  8248  006B5C  5006               	subwfb	((c:___aldiv@dividend+1)),c
  8249  006B5E  5A02               	movf	((c:___aldiv@divisor+2)),c,w
  8250  006B60  5007               	subwfb	((c:___aldiv@dividend+2)),c
  8251  006B62  5A03               	movf	((c:___aldiv@divisor+3)),c,w
  8252  006B64  5008               	subwfb	((c:___aldiv@dividend+3)),c
  8253  006B66  5A04               	line	33
  8254                           	
  8255                           l2109:
  8256  006B68                     	bsf	(0+(0/8)+(c:___aldiv@quotient)),c,(0)&7
  8257  006B68  800B               	goto	l2111
  8258  006B6A  EFB7  F035         	line	34
  8259                           	
  8260                           l602:
  8261  006B6E                     	line	35
  8262                           	
  8263                           l2111:
  8264  006B6E                     	bcf	status,0
  8265  006B6E  90D8               	rrcf	((c:___aldiv@divisor+3)),c
  8266  006B70  3208               	rrcf	((c:___aldiv@divisor+2)),c
  8267  006B72  3207               	rrcf	((c:___aldiv@divisor+1)),c
  8268  006B74  3206               	rrcf	((c:___aldiv@divisor)),c
  8269  006B76  3205               	line	36
  8270                           	
  8271                           l2113:
  8272  006B78                     	decfsz	((c:___aldiv@counter)),c
  8273  006B78  2E09               	
  8274                           	goto	l2103
  8275  006B7A  EF98  F035         	goto	l2115
  8276  006B7E  EFC3  F035         	
  8277                           l603:
  8278  006B82                     	goto	l2115
  8279  006B82  EFC3  F035         	line	37
  8280                           	
  8281                           l597:
  8282  006B86                     	line	38
  8283                           	
  8284                           l2115:
  8285  006B86                     	movf	((c:___aldiv@sign)),c,w
  8286  006B86  500A               	btfsc	status,2
  8287  006B88  B4D8               	goto	u1781
  8288  006B8A  EFC9  F035         	goto	u1780
  8289  006B8E  EFCB  F035         u1781:
  8290  006B92                     	goto	l2119
  8291  006B92  EFD5  F035         u1780:
  8292  006B96                     	line	39
  8293                           	
  8294                           l2117:
  8295  006B96                     	comf	((c:___aldiv@quotient+3)),c
  8296  006B96  1E0E               	comf	((c:___aldiv@quotient+2)),c
  8297  006B98  1E0D               	comf	((c:___aldiv@quotient+1)),c
  8298  006B9A  1E0C               	negf	((c:___aldiv@quotient)),c
  8299  006B9C  6C0B               	movlw	0
  8300  006B9E  0E00               	addwfc	((c:___aldiv@quotient+1)),c
  8301  006BA0  220C               	addwfc	((c:___aldiv@quotient+2)),c
  8302  006BA2  220D               	addwfc	((c:___aldiv@quotient+3)),c
  8303  006BA4  220E               	goto	l2119
  8304  006BA6  EFD5  F035         	
  8305                           l604:
  8306  006BAA                     	line	40
  8307                           	
  8308                           l2119:
  8309  006BAA                     	movff	(c:___aldiv@quotient),(c:?___aldiv)
  8310  006BAA  C00B  F001         	movff	(c:___aldiv@quotient+1),(c:?___aldiv+1)
  8311  006BAE  C00C  F002         	movff	(c:___aldiv@quotient+2),(c:?___aldiv+2)
  8312  006BB2  C00D  F003         	movff	(c:___aldiv@quotient+3),(c:?___aldiv+3)
  8313  006BB6  C00E  F004         	goto	l605
  8314  006BBA  EFDF  F035         	
  8315                           l2121:
  8316  006BBE                     	line	41
  8317                           	
  8318                           l605:
  8319  006BBE                     	return	;funcret
  8320  006BBE  0012               	opt stack 0
  8321                           GLOBAL	__end_of___aldiv
  8322                           	__end_of___aldiv:
  8323  006BC0                     	signat	___aldiv,8316
  8324                           	global	_ADCConfig
  8325                           
  8326 ;; *************** function _ADCConfig *****************
  8327 ;; Defined at:
  8328 ;;		line 314 in file "main.c"
  8329 ;; Parameters:    Size  Location     Type
  8330 ;;		None
  8331 ;; Auto vars:     Size  Location     Type
  8332 ;;		None
  8333 ;; Return value:  Size  Location     Type
  8334 ;;                  1    wreg      void 
  8335 ;; Registers used:
  8336 ;;		wreg, status,2
  8337 ;; Tracked objects:
  8338 ;;		On entry : 0/0
  8339 ;;		On exit  : 0/0
  8340 ;;		Unchanged: 0/0
  8341 ;; Data sizes:     COMRAM   BANK0   BANK1   BANK2   BANK3   BANK4   BANK5   BANK6   BANK7
  8342 ;;      Params:         0       0       0       0       0       0       0       0       0
  8343 ;;      Locals:         0       0       0       0       0       0       0       0       0
  8344 ;;      Temps:          0       0       0       0       0       0       0       0       0
  8345 ;;      Totals:         0       0       0       0       0       0       0       0       0
  8346 ;;Total ram usage:        0 bytes
  8347 ;; Hardware stack levels used:    1
  8348 ;; Hardware stack levels required when called:    1
  8349 ;; This function calls:
  8350 ;;		Nothing
  8351 ;; This function is called by:
  8352 ;;		_configuracionInicial
  8353 ;; This function uses a non-reentrant model
  8354 ;;
  8355                           psect	text32,class=CODE,space=0,reloc=2,group=0
  8356                           	file	"main.c"
  8357                           	line	314
  8358                           global __ptext32
  8359                           __ptext32:
  8360  00649A                     psect	text32
  8361                           	file	"main.c"
  8362                           	line	314
  8363                           	global	__size_of_ADCConfig
  8364                           	__size_of_ADCConfig	equ	__end_of_ADCConfig-_ADCConfig
  8365  0000                     	
  8366                           _ADCConfig:
  8367  00649A                     ;incstack = 0
  8368                           	opt	stack 28
  8369                           	line	316
  8370                           	
  8371                           l2497:
  8372  00649A                     ;main.c: 316:     TRISAbits.RA0 = 1;
  8373                           	bsf	((c:3986)),c,0	;volatile
  8374  00649A  8092               	line	317
  8375                           ;main.c: 317:     TRISAbits.RA1 = 1;
  8376                           	bsf	((c:3986)),c,1	;volatile
  8377  00649C  8292               	line	318
  8378                           ;main.c: 318:     TRISAbits.RA2 = 1;
  8379                           	bsf	((c:3986)),c,2	;volatile
  8380  00649E  8492               	line	319
  8381                           ;main.c: 319:     TRISAbits.RA3 = 1;
  8382                           	bsf	((c:3986)),c,3	;volatile
  8383  0064A0  8692               	line	320
  8384                           	
  8385                           l2499:
  8386  0064A2                     ;main.c: 320:     ADCON0 = 0x01;
  8387                           	movlw	low(01h)
  8388  0064A2  0E01               	movwf	((c:4034)),c	;volatile
  8389  0064A4  6EC2               	line	321
  8390                           ;main.c: 321:     ADCON1 = 0x0B;
  8391                           	movlw	low(0Bh)
  8392  0064A6  0E0B               	movwf	((c:4033)),c	;volatile
  8393  0064A8  6EC1               	line	322
  8394                           ;main.c: 322:     ADCON2 = 0xAB;
  8395                           	movlw	low(0ABh)
  8396  0064AA  0EAB               	movwf	((c:4032)),c	;volatile
  8397  0064AC  6EC0               	line	324
  8398                           	
  8399                           l289:
  8400  0064AE                     	return	;funcret
  8401  0064AE  0012               	opt stack 0
  8402                           GLOBAL	__end_of_ADCConfig
  8403                           	__end_of_ADCConfig:
  8404  0064B0                     	signat	_ADCConfig,89
  8405                           	global	_TimerOverflow
  8406                           
  8407 ;; *************** function _TimerOverflow *****************
  8408 ;; Defined at:
  8409 ;;		line 393 in file "main.c"
  8410 ;; Parameters:    Size  Location     Type
  8411 ;;		None
  8412 ;; Auto vars:     Size  Location     Type
  8413 ;;		None
  8414 ;; Return value:  Size  Location     Type
  8415 ;;                  1    wreg      void 
  8416 ;; Registers used:
  8417 ;;		wreg, status,2, status,0
  8418 ;; Tracked objects:
  8419 ;;		On entry : 0/0
  8420 ;;		On exit  : 0/0
  8421 ;;		Unchanged: 0/0
  8422 ;; Data sizes:     COMRAM   BANK0   BANK1   BANK2   BANK3   BANK4   BANK5   BANK6   BANK7
  8423 ;;      Params:         0       0       0       0       0       0       0       0       0
  8424 ;;      Locals:         0       0       0       0       0       0       0       0       0
  8425 ;;      Temps:          0       0       0       0       0       0       0       0       0
  8426 ;;      Totals:         0       0       0       0       0       0       0       0       0
  8427 ;;Total ram usage:        0 bytes
  8428 ;; Hardware stack levels used:    1
  8429 ;; This function calls:
  8430 ;;		Nothing
  8431 ;; This function is called by:
  8432 ;;		Interrupt level 2
  8433 ;; This function uses a non-reentrant model
  8434 ;;
  8435                           psect	intcode,class=CODE,space=0,reloc=2
  8436                           global __pintcode
  8437                           __pintcode:
  8438  000008                     psect	intcode
  8439                           	file	"main.c"
  8440                           	line	393
  8441                           	global	__size_of_TimerOverflow
  8442                           	__size_of_TimerOverflow	equ	__end_of_TimerOverflow-_TimerOverflow
  8443  0000                     	
  8444                           _TimerOverflow:
  8445  000008                     ;incstack = 0
  8446                           	opt	stack 26
  8447                           	bsf int$flags,1,c ;set compiler interrupt flag (level 2)
  8448  000008  825F               	global	int_func
  8449                           	call	int_func,f	;refresh shadow registers
  8450  00000A  EDAB  F032         psect	intcode_body,class=CODE,space=0,reloc=2
  8451                           global __pintcode_body
  8452                           __pintcode_body:
  8453  006556                     int_func:
  8454  006556                     
  8455                           	pop	; remove dummy address from shadow register refresh
  8456  006556  0006               	line	395
  8457                           	
  8458                           i2l2939:
  8459  006558                     ;main.c: 395:     if(INTCONbits.TMR0IF == 1)
  8460                           	btfss	((c:4082)),c,2	;volatile
  8461  006558  A4F2               	goto	i2u324_41
  8462  00655A  EFB1  F032         	goto	i2u324_40
  8463  00655E  EFB3  F032         i2u324_41:
  8464  006562                     	goto	i2l321
  8465  006562  EFC1  F032         i2u324_40:
  8466  006566                     	line	398
  8467                           	
  8468                           i2l2941:
  8469  006566                     ;main.c: 396:     {;main.c: 398:         millis++;
  8470                           	movlw	low(01h)
  8471  006566  0E01               	movlb	0	; () banked
  8472  006568  0100               	addwf	((_millis))&0ffh
  8473  00656A  2760               	movlw	0
  8474  00656C  0E00               	addwfc	((_millis+1))&0ffh
  8475  00656E  2361               	addwfc	((_millis+2))&0ffh
  8476  006570  2362               	addwfc	((_millis+3))&0ffh
  8477  006572  2363               	line	399
  8478                           	
  8479                           i2l2943:; BSR set to: 0
  8480  006574                     
  8481                           ;main.c: 399:         INTCONbits.TMR0IF = 0;
  8482                           	bcf	((c:4082)),c,2	;volatile
  8483  006574  94F2               	line	400
  8484                           	
  8485                           i2l2945:; BSR set to: 0
  8486  006576                     
  8487                           ;main.c: 400:         TMR0L = 0x00;
  8488                           	movlw	low(0)
  8489  006576  0E00               	movwf	((c:4054)),c	;volatile
  8490  006578  6ED6               	line	401
  8491                           	
  8492                           i2l2947:; BSR set to: 0
  8493  00657A                     
  8494                           ;main.c: 401:         TMR0H = 0x00;
  8495                           	movlw	low(0)
  8496  00657A  0E00               	movwf	((c:4055)),c	;volatile
  8497  00657C  6ED7               	goto	i2l321
  8498  00657E  EFC1  F032         	line	403
  8499                           ;main.c: 403:     }
  8500                           	
  8501                           i2l320:; BSR set to: 0
  8502  006582                     
  8503                           	line	404
  8504                           	
  8505                           i2l321:
  8506  006582                     	bcf int$flags,1,c ;clear compiler interrupt flag (level 2)
  8507  006582  925F               	retfie f
  8508  006584  0011               	opt stack 0
  8509                           GLOBAL	__end_of_TimerOverflow
  8510                           	__end_of_TimerOverflow:
  8511  006586                     	signat	_TimerOverflow,89
  8512                           	GLOBAL	__activetblptr
  8513                           __activetblptr	EQU	2
  8514  0000                     	psect	intsave_regs,class=BIGRAM,space=1,noexec
  8515                           	PSECT	rparam,class=COMRAM,space=1,noexec
  8516                           	GLOBAL	__Lrparam
  8517                           	FNCONF	rparam,??,?
  8518                           	GLOBAL	___rparam_used
  8519                           	___rparam_used EQU 1
  8520  0000                     	GLOBAL	___param_bank
  8521                           	___param_bank EQU 0
  8522  0000                     GLOBAL	__Lparam, __Hparam
  8523                           GLOBAL	__Lrparam, __Hrparam
  8524                           __Lparam	EQU	__Lrparam
  8525  0000                     __Hparam	EQU	__Hrparam
  8526  0000                            psect   temp,common,ovrld,class=COMRAM,space=1
  8527                           	global	btemp
  8528                           btemp:
  8529  00005F                     	ds	1
  8530  00005F                     	global	int$flags
  8531                           	int$flags	set btemp
  8532  0000                     	global	wtemp8
  8533                           	wtemp8 set btemp+1
  8534  0000                     	global	ttemp5
  8535                           	ttemp5 set btemp+1
  8536  0000                     	global	ttemp6
  8537                           	ttemp6 set btemp+4
  8538  0000                     	global	ttemp7
  8539                           	ttemp7 set btemp+8
  8540  0000                     	end


Data Sizes:
    Strings     0
    Constant    0
    Data        2
    BSS         20
    Persistent  6
    Stack       0

Auto Spaces:
    Space          Size  Autos    Used
    COMRAM           94     94      94
    BANK0           160     12      40
    BANK1           256      0       0
    BANK2           256      0       0
    BANK3           256      0       0
    BANK4           256      0       0
    BANK5           256      0       0
    BANK6           256      0       0
    BANK7           256      0       0

Pointer List with Targets:

    None.

Critical Paths under _main in COMRAM

    _setup->_SerialBegin
    _SerialBegin->___aldiv
    _analogWrite->___fltol
    ___xxtofl->_PWM_Max_Duty
    ___fltol->___flmul
    ___flmul->___fldiv
    ___fldiv->___xxtofl
    _PWM_Max_Duty->___aldiv
    _CCPConfig->_PWM1_Init
    _CCPConfig->_PWM2_Init
    _PWM2_Init->___aldiv
    _PWM1_Init->___aldiv

Critical Paths under _TimerOverflow in COMRAM

    None.

Critical Paths under _main in BANK0

    _main->_loop
    _loop->_analogWrite

Critical Paths under _TimerOverflow in BANK0

    None.

Critical Paths under _main in BANK1

    None.

Critical Paths under _TimerOverflow in BANK1

    None.

Critical Paths under _main in BANK2

    None.

Critical Paths under _TimerOverflow in BANK2

    None.

Critical Paths under _main in BANK3

    None.

Critical Paths under _TimerOverflow in BANK3

    None.

Critical Paths under _main in BANK4

    None.

Critical Paths under _TimerOverflow in BANK4

    None.

Critical Paths under _main in BANK5

    None.

Critical Paths under _TimerOverflow in BANK5

    None.

Critical Paths under _main in BANK6

    None.

Critical Paths under _TimerOverflow in BANK6

    None.

Critical Paths under _main in BANK7

    None.

Critical Paths under _TimerOverflow in BANK7

    None.

Call Graph Tables:

 ---------------------------------------------------------------------------------
 (Depth) Function   	        Calls       Base Space   Used Autos Params    Refs
 ---------------------------------------------------------------------------------
 (0) _main                                                 0     0      0   13706
               _configuracionInicial
                               _loop
                              _setup
 ---------------------------------------------------------------------------------
 (1) _setup                                                0     0      0    2278
                        _SerialBegin
                            _pinMode
 ---------------------------------------------------------------------------------
 (2) _pinMode                                              4     3      1     680
                                              0 COMRAM     4     3      1
 ---------------------------------------------------------------------------------
 (2) _SerialBegin                                         12     8      4    1598
                                             14 COMRAM    12     8      4
                            ___aldiv
 ---------------------------------------------------------------------------------
 (1) _loop                                                 7     7      0    8460
                                              5 BANK0      7     7      0
                    _SerialAvailable
                         _SerialRead
                        _SerialWrite
                         _analogRead
                        _analogWrite
                     _cocienteEntero
                              _delay
                            _residuo
 ---------------------------------------------------------------------------------
 (2) _residuo                                              6     2      4     264
                                              0 COMRAM     6     2      4
 ---------------------------------------------------------------------------------
 (2) _delay                                                7     5      2     288
                                              0 COMRAM     7     5      2
 ---------------------------------------------------------------------------------
 (2) _cocienteEntero                                       8     4      4     266
                                              0 COMRAM     8     4      4
 ---------------------------------------------------------------------------------
 (2) _analogWrite                                          5     3      2    7506
                                              0 BANK0      5     3      2
                       _PWM_Max_Duty
                            ___fldiv
                            ___flmul
                            ___fltol
                           ___xxtofl
 ---------------------------------------------------------------------------------
 (3) ___xxtofl                                            14    10      4     854
                                             20 COMRAM    14    10      4
                       _PWM_Max_Duty (ARG)
 ---------------------------------------------------------------------------------
 (3) ___fltol                                             10     6      4     381
                                             84 COMRAM    10     6      4
                       _PWM_Max_Duty (ARG)
                            ___fldiv (ARG)
                            ___flmul (ARG)
                           ___xxtofl (ARG)
 ---------------------------------------------------------------------------------
 (3) ___flmul                                             25    17      8    2656
                                             59 COMRAM    25    17      8
                       _PWM_Max_Duty (ARG)
                            ___fldiv (ARG)
                           ___xxtofl (ARG)
 ---------------------------------------------------------------------------------
 (3) ___fldiv                                             25    17      8    1855
                                             34 COMRAM    25    17      8
                           ___xxtofl (ARG)
 ---------------------------------------------------------------------------------
 (3) _PWM_Max_Duty                                         6     4      2    1364
                                             14 COMRAM     6     4      2
                            ___aldiv
 ---------------------------------------------------------------------------------
 (2) _analogRead                                           5     3      2      22
                                              0 COMRAM     5     3      2
 ---------------------------------------------------------------------------------
 (2) _SerialWrite                                          1     1      0      22
                                              0 COMRAM     1     1      0
 ---------------------------------------------------------------------------------
 (2) _SerialRead                                           0     0      0       0
 ---------------------------------------------------------------------------------
 (2) _SerialAvailable                                      0     0      0       0
 ---------------------------------------------------------------------------------
 (1) _configuracionInicial                                 0     0      0    2968
                          _ADCConfig
                          _CCPConfig
                        _PORTAConfig
                        _PORTBConfig
                        _PORTCConfig
                        _PORTDConfig
                        _PORTEConfig
                         _TMR0Config
                         _TMR1Config
 ---------------------------------------------------------------------------------
 (2) _TMR1Config                                           0     0      0       0
 ---------------------------------------------------------------------------------
 (2) _TMR0Config                                           0     0      0       0
 ---------------------------------------------------------------------------------
 (2) _PORTEConfig                                          0     0      0       0
 ---------------------------------------------------------------------------------
 (2) _PORTDConfig                                          0     0      0       0
 ---------------------------------------------------------------------------------
 (2) _PORTCConfig                                          0     0      0       0
 ---------------------------------------------------------------------------------
 (2) _PORTBConfig                                          0     0      0       0
 ---------------------------------------------------------------------------------
 (2) _PORTAConfig                                          0     0      0       0
 ---------------------------------------------------------------------------------
 (2) _CCPConfig                                            0     0      0    2968
                          _PWM1_Init
                         _PWM1_Start
                          _PWM2_Init
                         _PWM2_Start
 ---------------------------------------------------------------------------------
 (3) _PWM2_Start                                           0     0      0       0
 ---------------------------------------------------------------------------------
 (3) _PWM2_Init                                            8     4      4    1484
                                             14 COMRAM     8     4      4
                            ___aldiv
 ---------------------------------------------------------------------------------
 (3) _PWM1_Start                                           0     0      0       0
 ---------------------------------------------------------------------------------
 (3) _PWM1_Init                                            8     4      4    1484
                                             14 COMRAM     8     4      4
                            ___aldiv
 ---------------------------------------------------------------------------------
 (3) ___aldiv                                             14     6      8    1364
                                              0 COMRAM    14     6      8
 ---------------------------------------------------------------------------------
 (2) _ADCConfig                                            0     0      0       0
 ---------------------------------------------------------------------------------
 Estimated maximum stack depth 3
 ---------------------------------------------------------------------------------
 (Depth) Function   	        Calls       Base Space   Used Autos Params    Refs
 ---------------------------------------------------------------------------------
 (5) _TimerOverflow                                        0     0      0       0
 ---------------------------------------------------------------------------------
 Estimated maximum stack depth 5
 ---------------------------------------------------------------------------------

 Call Graph Graphs:

 _main (ROOT)
   _configuracionInicial
     _ADCConfig
     _CCPConfig
       _PWM1_Init
         ___aldiv
       _PWM1_Start
       _PWM2_Init
         ___aldiv
       _PWM2_Start
     _PORTAConfig
     _PORTBConfig
     _PORTCConfig
     _PORTDConfig
     _PORTEConfig
     _TMR0Config
     _TMR1Config
   _loop
     _SerialAvailable
     _SerialRead
     _SerialWrite
     _analogRead
     _analogWrite
       _PWM_Max_Duty
         ___aldiv
       ___fldiv
         ___xxtofl (ARG)
           _PWM_Max_Duty (ARG)
             ___aldiv
       ___flmul
         _PWM_Max_Duty (ARG)
           ___aldiv
         ___fldiv (ARG)
           ___xxtofl (ARG)
             _PWM_Max_Duty (ARG)
               ___aldiv
         ___xxtofl (ARG)
           _PWM_Max_Duty (ARG)
             ___aldiv
       ___fltol
         _PWM_Max_Duty (ARG)
           ___aldiv
         ___fldiv (ARG)
           ___xxtofl (ARG)
             _PWM_Max_Duty (ARG)
               ___aldiv
         ___flmul (ARG)
           _PWM_Max_Duty (ARG)
             ___aldiv
           ___fldiv (ARG)
             ___xxtofl (ARG)
               _PWM_Max_Duty (ARG)
                 ___aldiv
           ___xxtofl (ARG)
             _PWM_Max_Duty (ARG)
               ___aldiv
         ___xxtofl (ARG)
           _PWM_Max_Duty (ARG)
             ___aldiv
       ___xxtofl
         _PWM_Max_Duty (ARG)
           ___aldiv
     _cocienteEntero
     _delay
     _residuo
   _setup
     _SerialBegin
       ___aldiv
     _pinMode

 _TimerOverflow (ROOT)

 Address spaces:
Name               Size   Autos  Total    Cost      Usage
BIGRAM             7FF      0       0      21        0.0%
EEDATA             100      0       0       0        0.0%
BITBANK7           100      0       0      18        0.0%
BANK7              100      0       0      19        0.0%
BITBANK6           100      0       0      16        0.0%
BANK6              100      0       0      17        0.0%
BITBANK5           100      0       0      14        0.0%
BANK5              100      0       0      15        0.0%
BITBANK4           100      0       0      12        0.0%
BANK4              100      0       0      13        0.0%
BITBANK3           100      0       0      10        0.0%
BANK3              100      0       0      11        0.0%
BITBANK2           100      0       0       8        0.0%
BANK2              100      0       0       9        0.0%
BITBANK1           100      0       0       6        0.0%
BANK1              100      0       0       7        0.0%
BITBANK0            A0      0       0       4        0.0%
BANK0               A0      C      28       5       25.0%
BITCOMRAM           5E      0       0       0        0.0%
COMRAM              5E     5E      5E       1      100.0%
BITSFR               0      0       0     200        0.0%
SFR                  0      0       0     200        0.0%
STACK                0      0       0       2        0.0%
NULL                 0      0       0       0        0.0%
ABS                  0      0      86      20        0.0%
DATA                 0      0      86       3        0.0%
CODE                 0      0       0       0        0.0%


Microchip Technology PIC18 Macro Assembler V2.00 build -1524193055 
Symbol Table                                                                                   Mon Nov 12 14:40:46 2018

           __size_of_ADCConfig 0016                   ___fldiv@aexp 003B                   ___fldiv@bexp 003A  
                 ___fldiv@sign 0033                             _A0 0071                    __CFG_BORV$3 000000  
                 __CFG_CP0$OFF 000000                   __CFG_CP1$OFF 000000                   __CFG_CP2$OFF 000000  
                 __CFG_CP3$OFF 000000                            l200 731C                            l201 732A  
                          l202 7338                            l203 7346                            l300 7224  
                          l204 7354                            l301 703E                            l205 7362  
                          l302 712C                            l206 7370                            l303 7250  
                          l207 737E                            l312 6450                            l304 7130  
                          l208 738C                            l305 721C                            l209 7470  
                          l306 7250                            l163 6520                            l324 646C  
                          l172 67C4                            l164 6528                            l309 65B6  
                          l173 683C                            l165 652C                            l350 6466  
                          l430 64B4                            l270 684C                            l510 665E  
                          l174 67F0                            l502 65FE                            l190 7290  
                          l166 652C                            l431 64B4                            l415 64D4  
                          l271 684C                            l511 6664                            l175 6816  
                          l503 65F6                            l191 729E                            _ADC 006B  
                          l600 6B2C                            l344 6460                            l432 64C6  
                          l416 64D4                            l280 68BC                            l272 685E  
                          l176 683C                            l504 6618                            l184 739E  
                          l192 72AC                            l601 6B30                            l353 645A  
                          l169 6554                            l433 64CC                            l417 64E6  
                          l281 68BC                            l273 6962                            l505 661E  
                          l193 72BA                            l185 7258                            l602 6B6E  
                          l370 6726                            l418 64EA                            l274 6962  
                          l282 68CE                            l186 7470                            l194 72C8  
                          l603 6B82                            l347 6456                            l427 6498  
                          l283 68EC                            l275 687C                            l195 72D6  
                          l187 7266                            l604 6BAA                            l356 6474  
                          l268 6928                            l284 68F4                            l276 6884  
                          l508 6644                            l196 72E4                            l188 7274  
                          l605 6BBE                            l373 6794                            l285 68F4  
                          l277 6884                            l269 6844                            l509 6634  
                          l197 72F2                            l189 7282                            l382 648C  
                          l286 6906                            l278 6896                            l198 7300  
                          l279 68B4                            l367 66B8                            l391 6A60  
                          l199 730E                            l376 6480                            l392 6A8A  
                          l289 64AE                            l393 6A8A                            l491 6CF2  
                          l492 6BFE                            l493 6BE2                            l830 6E08  
                          l822 6D36                            l494 6C22                            l831 6DF8  
                          l823 6E58                            l495 6CBA                            l832 6E1C  
                          l824 6DCC                            l496 6C9E                            l488 650A  
                          l833 6E44                            l825 6DB0                            l497 6CE2  
                          l826 6DB4                            l498 6D06                            l595 6AB6  
                          l827 6DC8                            l499 6D06                            l596 6ADC  
                          l828 6E20                            l597 6B86                            l829 6DF4  
                          l598 6B1A                            l599 6B0A                   __CFG_CPB$OFF 000000  
                          _PR2 000FCB                   __CFG_CPD$OFF 000000                            _PWM 0067  
                 __CFG_BOR$OFF 000000             __size_of_CCPConfig 0032                            wreg 000FE8  
                 ___flmul@aexp 004D                   ___flmul@bexp 004E                    _PWMTerminal 0086  
                 ___flmul@sign 0048                   ___flmul@temp 0053                   ___flmul@prod 004F  
                 __CFG_LVP$OFF 000000                   ___fltol@exp1 005E                   __CFG_WDT$OFF 000000  
                         l1100 74D0                           l1101 74C6                           l1110 76B0  
                         l1102 74E4                           l1111 7638                           l1103 7504  
                         l1120 7724                           l1112 767A                           l1104 7542  
                         l1121 7786                           l1113 766C                           l1105 7538  
                         l1130 7872                           l1122 776C                           l1114 76AE  
                         l1106 7556                           l1123 7786                           l1115 76C4  
                         l1107 75A0                           l1124 7782                           l1116 76E0  
                         l1108 7890                           l1140 796A                           l2101 6B1A  
                         l1125 77E6                           l1117 7712                           l1109 75D8  
                         l1141 79A6                           l1133 78B2                           l1126 77E2  
                         l1118 76E4                           l1150 7BD6                           l1134 78EC  
                         l2111 6B6E                           l2103 6B30                           l1127 781A  
                         l1119 76FE                           l1151 7BF0                           l1143 798E  
                         l1135 78E6                           l1128 7854                           l1152 7BEC  
                         l1144 7CFE                           l1136 7900                           l2121 6BBE  
                         l2113 6B78                           l2105 6B3A                           l1129 786C  
                         l2201 7610                           l1153 7C50                           l1145 7B7C  
                         l1137 7920                           l1154 7C4C                           l1146 7B4E  
                         l1138 795A                           l2107 6B58                           l2115 6B86  
                         l2131 6728                           l2123 6666                           l2211 765C  
                         l2203 7620                           l1155 7C7E                           l1147 7B68  
                         l1139 7954                           l1156 7CE6                           l1148 7B8E  
                         l2117 6B96                           l2109 6B68                           l2133 6784  
                         l2125 66B8                           l2221 76AE                           l2213 766A  
                         l2205 7630                           l2141 747E                           l1157 7CB0  
                         l1149 7BF0                           l2301 7920                           l1181 6EB0  
                         l1158 7CE2                           l1190 6F8A                           l1182 6EC4  
                         l2119 6BAA                           l2127 66BA                           l2135 6476  
                         l2231 76FC                           l2223 76C4                           l2215 767A  
                         l2207 7638                           l2151 74C6                           l2143 748C  
                         l1159 7CD8                           l2311 797A                           l2303 7930  
                         l1191 6F9E                           l1183 6EF2                           l1192 6F8E  
                         l1184 7034                           l2081 6A90                           l2129 6716  
                         l2137 6482                           l2241 7764                           l2225 76DA  
                         l2233 7712                           l2217 7698                           l2209 7648  
                         l2161 74F0                           l2153 74C8                           l2145 7492  
                         l2401 7CE6                           l2321 79BC                           l2313 798E  
                         l2305 7940                           l1185 6F0A                           l1194 6FC0  
                         l1186 6EFA                           l2091 6AD4                           l2083 6A9E  
                         l2251 77DA                           l2243 777A                           l2235 7724  
                         l2227 76E4                           l2219 769A                           l2171 7538  
                         l2163 74FE                           l2147 74A2                           l2155 74D0  
                         l1099 7492                           l2139 7472                           l2403 7CEA  
                         l2331 7A0E                           l2323 79D2                           l2315 79A2  
                         l2307 7954                           l2411 6D32                           l1195 6FC0  
                         l1187 6F3C                           l1196 6FD4                           l1188 6F58  
                         l2093 6ADC                           l2085 6AAE                           l2501 6586  
                         l2261 7854                           l2245 7796                           l2253 77E6  
                         l2237 7728                           l2229 76EE                           l2181 757C  
                         l2173 753A                           l2165 7504                           l2157 74E4  
                         l2149 74B2                           l2405 7CFE                           l2341 7A54  
                         l2333 7A1C                           l2325 79DE                           l2317 79A6  
                         l2309 795A                           l2421 6D76                           l2413 6D36  
                         l1197 7020                           l1189 6F40                           l2095 6AEC  
                         l2087 6AB6                           l2079 6A8C                           l2503 65AE  
                         l2511 6462                           l2271 7878                           l2263 7858  
                         l2255 7800                           l2247 77A2                           l2239 7736  
                         l2191 75B0                           l2183 7584                           l2167 7514  
                         l2175 7542                           l2159 74EA                           l2351 7AC2  
                         l2343 7A6E                           l2335 7A28                           l2327 79F6  
                         l2319 79B2                           l2431 6DBE                           l2423 6D84  
                         l2415 6D60                           l2407 6D08                           l2097 6B02  
                         l2089 6AC4                           l2505 65B2                           l2513 6458  
                         l2273 787C                           l2265 7866                           l2257 781A  
                         l2249 77B0                           l2193 75C0                           l2185 7588  
                         l2177 7556                           l2169 7524                           l2361 7B58  
                         l2353 7AEC                           l2345 7A7E                           l2337 7A38  
                         l2329 7A02                           l2281 78AC                           l2441 6E08  
                         l2425 6D98                           l2433 6DCC                           l2417 6D62  
                         l2409 6D1E                           l2601 7110                           l2521 679E  
                         l2099 6B0A                           l2507 645C                           l2515 646E  
                         l2275 7890                           l2267 786C                           l2259 7834  
                         l2195 75D4                           l2187 759C                           l2179 756C  
                         l2371 7BA0                           l2363 7B66                           l2355 7B22  
                         l2347 7A9A                           l2339 7A44                           l2291 78EC  
                         l2283 78B2                           l2435 6DDC                           l2443 6E20  
                         l2427 6DAC                           l2419 6D72                           l2451 6E5C  
                         l2611 7200                           l2603 7130                           l2531 67F2  
                         l2523 67C0                           l3075 73B2                           l2509 6454  
                         l2517 6468                           l2269 7872                           l2197 75D8  
                         l2189 75A0                           l2381 7C1A                           l2373 7BCE  
                         l2365 7B7C                           l2357 7B30                           l2349 7AA6  
                         l2293 7900                           l2285 78C2                           l2277 7892  
                         l2445 6E30                           l2437 6DF0                           l2429 6DB4  
                         l2461 6EEE                           l2453 6E6C                           l3077 723A  
                         l2613 7220                           l2605 7142                           l2533 67F6  
                         l2525 67C4                           l2701 6C36                           l2621 6964  
                         l2541 739A                           l3079 693C                           l2551 6844  
                         l2199 7600                           l2391 7C98                           l2383 7C44  
                         l2375 7BE4                           l2367 7B8E                           l2359 7B4E  
                         l2295 7906                           l2287 78D2                           l2279 789E  
                         l2447 6E44                           l2439 6DF8                           l2471 6F42  
                         l2463 6EF2                           l2455 6E7A                           l2607 71D4  
                         l2615 7224                           l2535 6816                           l2527 67CC  
                         l2519 6796                           l2711 6C8A                           l2703 6C3E  
                         l2631 6A76                           l2623 69D4                           l2543 739E  
                         l2641 64B0                           l2633 64D0                           l2561 6896  
                         l2553 685E                           l2393 7CB4                           l2377 7C00  
                         l2385 7C50                           l2369 7B92                           l2297 790C  
                         l2289 78E6                           l2449 6E58                           l2481 6FCE  
                         l2473 6F4E                           l2465 6EFA                           l2457 6EC4  
                         l2609 71EC                           l2537 681A                           l2529 67EC  
                         l2721 6CBA                           l2713 6C8E                           l2705 6C4C  
                         l2625 69EA                           l2643 64C6                           l2635 64E6  
                         l2571 68E4                           l2563 68AC                           l2555 6874  
                         l2395 7CC4                           l2387 7C6A                           l2379 7C0C  
                         l2299 791A                           l2491 701A                           l2483 6FD4  
                         l2475 6F8E                           l2467 6F0A                           l2459 6EDA  
                         l2651 6634                           l2723 6CE2                           l2715 6C92  
                         l2707 6C5A                           l2627 6A5A                           l2539 7254  
                         l2637 648E                           l2645 64CC                           l2581 6920  
                         l2573 68E8                           l2565 68B0                           l2557 6878  
                         l2549 6840                           l2397 7CD2                           l2389 7C7E  
                         l2493 7020                           l2485 6FD8                           l2477 6F9E  
                         l2469 6F40                           l2653 663C                           l2661 65EA  
                         l2717 6C9E                           l2709 6C72                           l2725 6CF2  
                         l2629 6A60                           l2671 6534                           l2639 6498  
                         l2583 6924                           l2575 68EC                           l2567 68B4  
                         l2559 687C                           l2399 7CD8                           l2495 7034  
                         l2487 6FFC                           l2479 6FAC                           l2591 703A  
                         l2655 6644                           l2647 6620                           l2663 65F6  
                         l2719 6CB0                           l2497 649A                           l2681 6548  
                         l2673 6538                           l2577 6906                           l2569 68CE  
                         l2585 6928                           l2489 700C                           l2593 703E  
                         l2657 665E                           l2649 6628                           l2665 6618  
                         l2499 64A2                           l2683 654C                           l2675 653C  
                         l2579 691C                           l2595 7052                           l2659 6664  
                         l2667 661E                           l2691 6BD4                           l2685 6550  
                         l2677 6540                           l2669 6530                           l2597 70E4  
                         l2693 6BE2                           l2933 650C                           l2679 6544  
                         l2599 70FC                           l2695 6BF4                           l2687 64EC  
                         l2935 6514                           l2697 6BFE                           l2689 6BC0  
                         l2937 6520                           l2699 6C30                           _BRGH 007D62  
                         _CREN 007D5C                           _FERR 007D5A                           u2000 7764  
                         u2001 7760                           u2010 777A                           u2011 7776  
                         u2020 7796                           u2100 791A                           u2021 7792  
                         u2101 7916                           u2030 77B0                           u2110 7930  
                         u2031 77AC                           u2111 792C                           u2040 7800  
                         u2200 7BE4                           u2120 7940                           u2041 77FC  
                         u2201 7BE0                           u2121 793C                           u2050 7834  
                         u2210 7C00                           u2130 797A                           u2051 7830  
                         u2211 7BFC                           u2131 7976                           u2060 7866  
                         u2220 7C1A                           u2140 798A                           u2300 6DDC  
                         u2061 7862                           u2221 7C16                           u2141 7986  
                         u2301 6DD8                           u2230 7C6A                           u2150 7B0C  
                         u2070 78AC                           u2310 6E18                           u2231 7C66  
                         u2071 78A8                           u2311 6E14                           u2240 7C98  
                         u2160 7B66                           u2080 78C2                           u2320 6E30  
                         u2400 6FCE                           u2241 7C94                           u2161 7B62  
                         u2081 78BE                           u2321 6E2C                           u2401 6FCA  
                         u2250 7CD2                           u2170 7B8A                           u2090 78D2  
                         u2410 700C                           u2330 6E6C                           u2251 7CCE  
                         u2171 7B86                           u2155 7B02                           u2091 78CE  
                         u2411 7008                           u2331 6E68                           u2180 7BA0  
                         u2260 6D1E                           u2420 701A                           u2340 6E7A  
                         u2181 7B9C                           u2261 6D1A                           u2421 7016  
                         u2341 6E76                           u2190 7BCE                           u2270 6D56  
                         u2350 6EDA                           u2430 67BC                           u2191 7BCA  
                         u2351 6ED6                           u2431 67B8                           u2280 6D84  
                         u2360 6F38                           u2440 67E8                           u2281 6D80  
                         u2361 6F34                           u2441 67E4                           u2505 728A  
                         u1730 6A9E                           u2290 6D98                           u2370 6F86  
                         u2450 6812                           u2506 728C                           u1731 6A9A  
                         u2291 6D94                           u2275 6D4C                           u2371 6F82  
                         u2451 680E                           u2515 7298                           u1740 6AC4  
                         u2700 685A                           u1900 756C                           u2380 6FAC  
                         u2460 6838                           u2516 729A                           u1741 6AC0  
                         u1805 66DC                           u2701 6856                           u1901 7568  
                         u2381 6FA8                           u2461 6834                           u2605 7316  
                         u2525 72A6                           u1750 6B02                           u2710 6892  
                         u1910 75B0                           u2390 6FBC                           u2606 7318  
                         u2526 72A8                           u1751 6AFE                           u1815 66EE  
                         u2711 688E                           u1911 75AC                           u2391 6FB8  
                         u2615 7324                           u2535 72B4                           u1760 6B28  
                         u2720 68CA                           u1920 7648                           u1840 748C  
                         u2800 665A                           u2616 7326                           u2536 72B6  
                         u1761 6B24                           u1825 674A                           u2721 68C6  
                         u1921 7644                           u1841 7488                           u2801 6656  
                         u2625 7332                           u2545 72C2                           u1770 6B58  
                         u2730 6902                           u1930 766A                           u1850 74A2  
                         u2810 6614                           u2626 7334                           u2546 72C4  
                         u1771 6B54                           u1835 675C                           u2731 68FE  
                         u1931 7666                           u1851 749E                           u2811 6610  
                         u2635 7340                           u2555 72D0                           u2475 7260  
                         u1780 6B96                           u1940 7698                           u1860 74B2  
                         u2740 7052                           u2820 6BD4                           u2636 7342  
                         u2556 72D2                           u2476 7262                           u1781 6B92  
                         u1941 7694                           u1861 74AE                           u2741 704E  
                         u2821 6BD0                           u2645 734E                           u2565 72DE  
                         u2485 726E                           u1950 76C0                           u1870 74FE  
                         u2750 7142                           u2830 6C22                           u2646 7350  
                         u2566 72E0                           u2486 7270                           u1951 76BC  
                         u1871 74FA                           u2751 713E                           u2831 6C1E  
                         u2655 735C                           u2575 72EC                           u2495 727C  
                         u1960 76DA                           u1880 7514                           u2840 6CDE  
                         u2760 69EA                           u2656 735E                           u2576 72EE  
                         u2496 727E                           u1961 76D6                           u1881 7510  
                         u2841 6CDA                           u2761 69E6                           u2665 736A  
                         u2585 72FA                           u1970 76FC                           u1890 7524  
                         u2770 6A76                           u2666 736C                           u2586 72FC  
                         u1795 6688                           u1971 76F8                           u1891 7520  
                         u2771 6A72                           u2675 7378                           u2595 7308  
                         u2780 64E2                           u1980 7720                           u2676 737A  
                         u2596 730A                           u2781 64DE                           u1981 771C  
                         u2685 7386                           u2790 64C2                           u1990 7736  
                         u2686 7388                           u2791 64BE                           u1991 7732  
                         u2695 7394                           u2696 7396                           _RCIF 007CF5  
                 _PWM_Max_Duty 6666                           _OERR 007D59                           _TMR0 000FD6  
                         _SPEN 007D5F                           _TRMT 007D61                           _TXEN 007D65  
                         _SYNC 007D64                           _main 650C                           _freq 0082  
                         _loop 6BC0                           indf2 000FDF                           fsr2l 000FD9  
                         btemp 005F                           prodh 000FF4                           prodl 000FF3  
                         start 000E                  __CFG_IESO$OFF 000000                ___fldiv@new_exp 0034  
                __CFG_MCLRE$ON 000000                   ___param_bank 000000                  __CFG_PLLDIV$5 000000  
               __CFG_CCP2MX$ON 000000                  ___fltol@sign1 005D                __end_of___aldiv 6BC0  
                        ?_main 0001                __end_of___fldiv 7892                          ?_loop 0001  
              __end_of___flmul 7D00                __end_of___fltol 6E5A                          _T1CON 000FCD  
                        i2l320 6582                          i2l321 6582                          _RCIDL 007DC6  
                        _RCREG 000FAE                          _TMR0H 000FD7                          _TMR1H 000FCF  
                        _TMR0L 000FD6                          _TMR1L 000FCE                          _SPBRG 000FAF  
                __CFG_USBDIV$1 000000                          _TRISA 000F92                          _TRISB 000F93  
                        _TRISC 000F94                          _TRISD 000F95                          _TXREG 000FAD  
                  ?_TMR0Config 0001                  __CFG_PWRT$OFF 000000                    ?_TMR1Config 0001  
                __CFG_WRT0$OFF 000000                  __CFG_WRT1$OFF 000000                  __CFG_WRT2$OFF 000000  
                __CFG_WRT3$OFF 000000                 __CFG_EBTR0$OFF 000000                 __CFG_FCMEN$OFF 000000  
               __CFG_EBTR1$OFF 000000                 __CFG_EBTR2$OFF 000000                 __CFG_EBTR3$OFF 000000  
                __CFG_WRTB$OFF 000000                  __CFG_WRTC$OFF 000000                  __CFG_WRTD$OFF 000000  
           __size_of_PWM1_Init 006E                    ?_PWM1_Start 0001             __size_of_PWM2_Init 006E  
                  ?_PWM2_Start 0001                 __CFG_EBTRB$OFF 000000                          _delay 6796  
            __end_of_ADCConfig 64B0                __end_of_pinMode 7472                          _setup 64EC  
              __end_of_residuo 6620                          tablat 000FF5                          loop@i 007C  
                        ttemp5 0060                          ttemp6 0063                          ttemp7 0067  
                        status 000FD8                          wtemp8 0060                 __CFG_ICPRT$OFF 000000  
            __end_of_CCPConfig 65B8           __size_of_analogWrite 021C                __initialization 65B8  
                 __end_of_main 6530                   __end_of_loop 6D08                         ??_main 005F  
                       ??_loop 0079                  __activetblptr 000002                         ?_delay 0001  
                       _ADCON0 000FC2                         _ADCON1 000FC1                         _ADCON2 000FC0  
                       _ADCLSB 006F                         _ADCMSB 0070                         _CCP1M2 007DEA  
                       _CCP1M3 007DEB                         _CCP2M2 007DD2                         _CCP2M3 007DD3  
                       _ADRESH 000FC4                         _ADRESL 000FC3                         _CCPR1L 000FBE  
                       _CCPR2L 000FBB                         ?_setup 0001                         i2l2941 6566  
                       i2l2943 6574                         i2l2945 6576                         i2l2947 657A  
                       i2l2939 6558                  ??_SerialBegin 0013                _SerialAvailable 648E  
                       _TMR2ON 007E52                         _TRISC6 007CA6                         _PWMLSB 006D  
                       _TRISC7 007CA7                         _PWMMSB 006E               __end_of___xxtofl 7036  
                ??_SerialWrite 0001                   ?_PORTAConfig 0001                   ?_PORTBConfig 0001  
                 ?_PORTCConfig 0001                     _SerialRead 64B0                   ?_PORTDConfig 0001  
                 ?_PORTEConfig 0001                 __CFG_XINST$OFF 000000            __size_of_TMR0Config 0002  
          __size_of_TMR1Config 0006             cocienteEntero@cont 0005              __end_of_PWM1_Init 6728  
            __end_of_PWM2_Init 6796                      ??___aldiv 0009                      ??___fldiv 002B  
               __CFG_STVREN$ON 000000            __size_of_PWM1_Start 000C                      ??___flmul 0044  
                    ??___fltol 0059  __size_of_configuracionInicial 0026            __size_of_PWM2_Start 000C  
                       _buffer 0087                         delay@i 0006                         delay@j 0004  
                       _millis 0060                         clear_0 65D6          __end_of_TimerOverflow 6586  
                    ??_pinMode 0002                         tblptrh 000FF7                         tblptrl 000FF6  
                       tblptru 000FF8                      ??_residuo 0005                   ___xxtofl@arg 001F  
                 ___xxtofl@exp 001E                   ___xxtofl@val 0015                     __accesstop 0060  
      __end_of__initialization 65DC                __CFG_PBADEN$OFF 000000            SerialBegin@baudRate 000F  
                ___rparam_used 000001                     ___fltol@f1 0055                    pinMode@mode 0001  
          __end_of_SerialBegin 6A8C                 __pcstackCOMRAM 0001                   __pidataBANK0 6452  
                __end_of_delay 683E            __end_of_SerialWrite 64EC                  __end_of_setup 650C  
             _SerialBegin$1934 0013        __end_of_SerialAvailable 649A                        ??_delay 0003  
                      ??_setup 001B                     __pbssBANK0 0060           SerialWrite@dataWrite 0001  
                   _analogRead 683E                    ?_SerialRead 0001        __size_of_cocienteEntero 0046  
                      _T2CKPS0 007E50                        _T2CKPS1 007E51                   ??_TMR0Config 0001  
                    ?___xxtofl 0015                   ??_TMR1Config 0001                   ??_PWM1_Start 0001  
                 ??_PWM2_Start 0001      cocienteEntero@denominator 0003                __CFG_VREGEN$OFF 000000  
                  _SerialBegin 6964                      _ADCConfig 649A                    _SerialWrite 64CE  
                      __Hparam 0000                        __Lparam 0000           __size_of_PORTAConfig 0006  
         __size_of_PORTBConfig 0004           __size_of_PORTCConfig 0006             __end_of_TMR0Config 6452  
         __size_of_PORTDConfig 0004             __end_of_TMR1Config 646E             residuo@denominator 0003  
               _SPBRG_Register 0080           __size_of_PORTEConfig 0008                        ___aldiv 6A8C  
          cocienteEntero@temp1 0007                        ___fldiv 7472                      _CCPConfig 6586  
                      ___flmul 7892                        ___fltol 6D08             __end_of_PWM1_Start 6482  
           __end_of_PWM2_Start 648E                        __pcinit 65B8                        __ramtop 0800  
                      __ptext0 650C                        __ptext1 64EC                        __ptext2 7252  
                      __ptext3 6964                        __ptext4 6BC0                        __ptext5 65EA  
                      __ptext6 6796                        __ptext7 6620                        __ptext8 7036  
                      __ptext9 6E5A                      _T1CONbits 000FCD                     ??___xxtofl 0019  
                      _pinMode 7252                     delay@milis 0001               ___aldiv@dividend 0001  
          __size_of_SerialRead 001E                        _residuo 65EA               ?_SerialAvailable 0001  
               __pintcode_body 6556           end_of_initialization 65DC                  ??_analogWrite 0076  
                analogRead@pin 0005                  __Lmediumconst 0000                        int_func 6556  
                   ?_ADCConfig 0001                    ?_analogRead 0001               ___aldiv@quotient 000B  
                      postinc0 000FEE                     ?_CCPConfig 0001                      _PWM1_Init 66BA  
                    _PWM2_Init 6728                      _PORTAbits 000F80                      _PORTBbits 000F81  
                    _PORTCbits 000F82                      _PORTDbits 000F83                      _PORTEbits 000F84  
                ___xxtofl@sign 001D                      _TRISAbits 000F92                      _TRISBbits 000F93  
                    _TRISCbits 000F94                      _TRISDbits 000F95                      _TRISEbits 000F96  
                  ___fldiv@grs 0036   __end_of_configuracionInicial 6556                    ___fldiv@rem 002F  
      cocienteEntero@numerator 0001                    ___flmul@grs 0049                    _CCP1CONbits 000FBD  
                  _CCP2CONbits 000FBA            __end_of_analogWrite 7252                 _cocienteEntero 6620  
                   ?_PWM1_Init 000F                     ?_PWM2_Init 000F            __size_of_analogRead 0126  
          start_initialization 65B8                  ?_PWM_Max_Duty 000F                    ??_ADCConfig 0001  
                 ??_SerialRead 0001         __size_of_TimerOverflow 657E                    ??_CCPConfig 0017  
       __end_of_cocienteEntero 6666                    __pdataBANK0 0086               __CFG_LPT1OSC$OFF 000000  
                    ___fldiv@a 0027                      ___fldiv@b 0023                      ___flmul@a 0040  
                    ___flmul@b 003C                  __pcstackBANK0 0074                     pinMode@pin 0004  
           __end_of_SerialRead 64CE                     loop@i_1229 007E              __size_of___xxtofl 01DC  
               ??_PWM_Max_Duty 0011                   ?_SerialBegin 000F                    _analogWrite 7036  
                    __pnvBANK0 0080                   ?_SerialWrite 0001                      __pintcode 0008  
             residuo@numerator 0001                       ?___aldiv 0001                       ?___fldiv 0023  
                     ?___flmul 003C                   SerialBegin@x 0017                       ?___fltol 0055  
         _configuracionInicial 6530                ?_cocienteEntero 0001                    ??_PWM1_Init 0013  
                  ??_PWM2_Init 0013                  _TimerOverflow 0008                       ?_pinMode 0001  
                     ?_residuo 0001                 __size_of_delay 00A8                 __size_of_setup 0020  
              ___aldiv@divisor 0005                ___aldiv@counter 0009                       _LATAbits 000F89  
                     _LATBbits 000F8A                       _LATCbits 000F8B                       _LATDbits 000F8C  
                 ??_analogRead 0003                  ??_PORTAConfig 0001                  ??_PORTBConfig 0001  
                ??_PORTCConfig 0001                  ??_PORTDConfig 0001                  ??_PORTEConfig 0001  
                     i2u324_40 6566                       i2u324_41 6562               __CFG_WDTPS$32768 000000  
        ?_configuracionInicial 0001                      _vectorOut 0069                     _ADCON0bits 000FC2  
               ?_TimerOverflow 0001             __end_of_analogRead 6964       __size_of_SerialAvailable 000C  
                     __Hrparam 0000                       _Operator 0073                       __Lrparam 0000  
                     _Terminal 0072            __end_of_PORTAConfig 6462            __end_of_PORTBConfig 6458  
          __end_of_PORTCConfig 6468               __size_of___aldiv 0134           __end_of_PWM_Max_Duty 66BA  
          __end_of_PORTDConfig 645C               __size_of___fldiv 0420            __end_of_PORTEConfig 6476  
             __size_of___flmul 046E               __size_of___fltol 0152                       ___xxtofl 6E5A  
             __size_of_pinMode 0220                       __ptext10 6D08                       __ptext11 7892  
                     __ptext20 6450                       __ptext12 7472                       __ptext21 646E  
                     __ptext13 6666                       __ptext30 66BA                       __ptext22 6458  
                     __ptext14 683E                       __ptext31 6A8C                       __ptext23 6462  
                     __ptext15 64CE                       __ptext32 649A                       __ptext24 6454  
                     __ptext16 64B0                       __ptext25 645C                       __ptext17 648E  
                     __ptext26 6586                       __ptext18 6530                       __ptext27 6482  
                     __ptext19 6468                       __ptext28 6728                       __ptext29 6476  
             __size_of_residuo 0036                   residuo@temp1 0005                  __size_of_main 0024  
                __size_of_loop 0148           __size_of_SerialBegin 0128                   PWM1_Init@fre 000F  
       ??_configuracionInicial 0017           __size_of_SerialWrite 001E                       _vectorIn 0064  
                 PWM2_Init@fre 000F                       int$flags 005F                ??_TimerOverflow 0001  
        __CFG_CPUDIV$OSC3_PLL4 000000                     _INTCONbits 000FF2               analogWrite@value 0074  
                     intlevel2 0000                   ?_analogWrite 0074                    _PORTAConfig 645C  
                  _PORTBConfig 6454               ??_cocienteEntero 0005                    _PORTCConfig 6462  
                  _PORTDConfig 6458                    _PORTEConfig 646E              ??_SerialAvailable 0001  
                   _TMR0Config 6450                     _TMR1Config 6468                   ___aldiv@sign 000A  
                   _PWM1_Start 6476                     _PWM2_Start 6482                 analogWrite@pin 0078  
           __CFG_FOSC$HSPLL_HS 000000          __size_of_PWM_Max_Duty 0054  
